Component: ARM Compiler 5.06 update 5 (build 528) Tool: armlink [4d35e2]

==============================================================================

Section Cross References

    tcpecho.o(i.tcpecho_init) refers to sys_arch_freertos.o(i.sys_thread_new) for sys_thread_new
    tcpecho.o(i.tcpecho_init) refers to tcpecho.o(i.tcpecho_thread) for tcpecho_thread
    tcpecho.o(i.tcpecho_thread) refers to api_lib.o(i.netconn_new_with_proto_and_callback) for netconn_new_with_proto_and_callback
    tcpecho.o(i.tcpecho_thread) refers to api_lib.o(i.netconn_bind) for netconn_bind
    tcpecho.o(i.tcpecho_thread) refers to api_lib.o(i.netconn_listen_with_backlog) for netconn_listen_with_backlog
    tcpecho.o(i.tcpecho_thread) refers to api_lib.o(i.netconn_accept) for netconn_accept
    tcpecho.o(i.tcpecho_thread) refers to netbuf.o(i.netbuf_data) for netbuf_data
    tcpecho.o(i.tcpecho_thread) refers to api_lib.o(i.netconn_write_partly) for netconn_write_partly
    tcpecho.o(i.tcpecho_thread) refers to netbuf.o(i.netbuf_next) for netbuf_next
    tcpecho.o(i.tcpecho_thread) refers to netbuf.o(i.netbuf_delete) for netbuf_delete
    tcpecho.o(i.tcpecho_thread) refers to api_lib.o(i.netconn_recv) for netconn_recv
    tcpecho.o(i.tcpecho_thread) refers to api_lib.o(i.netconn_close) for netconn_close
    tcpecho.o(i.tcpecho_thread) refers to api_lib.o(i.netconn_delete) for netconn_delete
    lwip_tcpecho_freertos.o(i.main) refers to chip_17xx_40xx.o(i.SystemCoreClockUpdate) for SystemCoreClockUpdate
    lwip_tcpecho_freertos.o(i.main) refers to board.o(i.Board_Init) for Board_Init
    lwip_tcpecho_freertos.o(i.main) refers to board.o(i.Board_LED_Set) for Board_LED_Set
    lwip_tcpecho_freertos.o(i.main) refers to tasks.o(i.xTaskGenericCreate) for xTaskGenericCreate
    lwip_tcpecho_freertos.o(i.main) refers to tasks.o(i.vTaskStartScheduler) for vTaskStartScheduler
    lwip_tcpecho_freertos.o(i.main) refers to lwip_tcpecho_freertos.o(i.vSetupIFTask) for vSetupIFTask
    lwip_tcpecho_freertos.o(i.msDelay) refers to tasks.o(i.vTaskDelay) for vTaskDelay
    lwip_tcpecho_freertos.o(i.vSetupIFTask) refers to _printf_percent.o(.ARM.Collect$$_printf_percent$$00000000) for _printf_percent
    lwip_tcpecho_freertos.o(i.vSetupIFTask) refers to _printf_d.o(.ARM.Collect$$_printf_percent$$00000009) for _printf_d
    lwip_tcpecho_freertos.o(i.vSetupIFTask) refers to _printf_dec.o(.text) for _printf_int_dec
    lwip_tcpecho_freertos.o(i.vSetupIFTask) refers to _printf_s.o(.ARM.Collect$$_printf_percent$$00000014) for _printf_s
    lwip_tcpecho_freertos.o(i.vSetupIFTask) refers to _printf_str.o(.text) for _printf_str
    lwip_tcpecho_freertos.o(i.vSetupIFTask) refers to tcpip.o(i.tcpip_init) for tcpip_init
    lwip_tcpecho_freertos.o(i.vSetupIFTask) refers to lwip_tcpecho_freertos.o(i.msDelay) for msDelay
    lwip_tcpecho_freertos.o(i.vSetupIFTask) refers to netif.o(i.netif_add) for netif_add
    lwip_tcpecho_freertos.o(i.vSetupIFTask) refers to lpc_debug.o(i.assert_loop) for assert_loop
    lwip_tcpecho_freertos.o(i.vSetupIFTask) refers to netif.o(i.netif_set_default) for netif_set_default
    lwip_tcpecho_freertos.o(i.vSetupIFTask) refers to netif.o(i.netif_set_up) for netif_set_up
    lwip_tcpecho_freertos.o(i.vSetupIFTask) refers to dhcp.o(i.dhcp_start) for dhcp_start
    lwip_tcpecho_freertos.o(i.vSetupIFTask) refers to tcpecho.o(i.tcpecho_init) for tcpecho_init
    lwip_tcpecho_freertos.o(i.vSetupIFTask) refers to lpc_phy_smsc87x0.o(i.lpcPHYStsPoll) for lpcPHYStsPoll
    lwip_tcpecho_freertos.o(i.vSetupIFTask) refers to board.o(i.Board_LED_Set) for Board_LED_Set
    lwip_tcpecho_freertos.o(i.vSetupIFTask) refers to enet_17xx_40xx.o(i.Chip_ENET_SetFullDuplex) for Chip_ENET_SetFullDuplex
    lwip_tcpecho_freertos.o(i.vSetupIFTask) refers to enet_17xx_40xx.o(i.Chip_ENET_SetHalfDuplex) for Chip_ENET_SetHalfDuplex
    lwip_tcpecho_freertos.o(i.vSetupIFTask) refers to tcpip.o(i.tcpip_callback_with_block) for tcpip_callback_with_block
    lwip_tcpecho_freertos.o(i.vSetupIFTask) refers to noretval__2printf.o(.text) for __2printf
    lwip_tcpecho_freertos.o(i.vSetupIFTask) refers to tasks.o(i.vTaskDelay) for vTaskDelay
    lwip_tcpecho_freertos.o(i.vSetupIFTask) refers to ip_addr.o(i.ipaddr_ntoa_r) for ipaddr_ntoa_r
    lwip_tcpecho_freertos.o(i.vSetupIFTask) refers to lwip_tcpecho_freertos.o(i.tcpip_init_done_signal) for tcpip_init_done_signal
    lwip_tcpecho_freertos.o(i.vSetupIFTask) refers to tcpip.o(i.tcpip_input) for tcpip_input
    lwip_tcpecho_freertos.o(i.vSetupIFTask) refers to lpc17xx_40xx_emac.o(i.lpc_enetif_init) for lpc_enetif_init
    lwip_tcpecho_freertos.o(i.vSetupIFTask) refers to lwip_tcpecho_freertos.o(.bss) for .bss
    lwip_tcpecho_freertos.o(i.vSetupIFTask) refers to lwip_tcpecho_freertos.o(.data) for .data
    lwip_tcpecho_freertos.o(i.vSetupIFTask) refers to netif.o(i.netif_set_link_up) for netif_set_link_up
    lwip_tcpecho_freertos.o(i.vSetupIFTask) refers to netif.o(i.netif_set_link_down) for netif_set_link_down
    sysinit.o(i.SystemInit) refers to board_sysinit.o(i.Board_SystemInit) for Board_SystemInit
    sysinit.o(i.SystemInit) refers to keil_startup_lpc17xx_40xx.o(RESET) for __Vectors
    keil_startup_lpc17xx_40xx.o(STACK) refers (Special) to heapauxi.o(.text) for __use_two_region_memory
    keil_startup_lpc17xx_40xx.o(HEAP) refers (Special) to heapauxi.o(.text) for __use_two_region_memory
    keil_startup_lpc17xx_40xx.o(RESET) refers (Special) to heapauxi.o(.text) for __use_two_region_memory
    keil_startup_lpc17xx_40xx.o(RESET) refers to keil_startup_lpc17xx_40xx.o(STACK) for __initial_sp
    keil_startup_lpc17xx_40xx.o(RESET) refers to keil_startup_lpc17xx_40xx.o(.text) for Reset_Handler
    keil_startup_lpc17xx_40xx.o(RESET) refers to port.o(.emb_text) for SVC_Handler
    keil_startup_lpc17xx_40xx.o(RESET) refers to port.o(i.SysTick_Handler) for SysTick_Handler
    keil_startup_lpc17xx_40xx.o(RESET) refers to lpc17xx_40xx_emac.o(i.ETH_IRQHandler) for ETH_IRQHandler
    keil_startup_lpc17xx_40xx.o(.text) refers (Special) to heapauxi.o(.text) for __use_two_region_memory
    keil_startup_lpc17xx_40xx.o(.text) refers to sysinit.o(i.SystemInit) for SystemInit
    keil_startup_lpc17xx_40xx.o(.text) refers to __main.o(!!!main) for __main
    keil_startup_lpc17xx_40xx.o(.text) refers to keil_startup_lpc17xx_40xx.o(HEAP) for Heap_Mem
    keil_startup_lpc17xx_40xx.o(.text) refers to keil_startup_lpc17xx_40xx.o(STACK) for Stack_Mem
    port.o(.emb_text) refers to tasks.o(i.vTaskSwitchContext) for vTaskSwitchContext
    port.o(.emb_text) refers to tasks.o(.data) for pxCurrentTCB
    port.o(i.SysTick_Handler) refers to port.o(.emb_text) for ulPortSetInterruptMask
    port.o(i.SysTick_Handler) refers to tasks.o(i.xTaskIncrementTick) for xTaskIncrementTick
    port.o(i.prvTaskExitError) refers to port.o(.emb_text) for ulPortSetInterruptMask
    port.o(i.pxPortInitialiseStack) refers to port.o(i.prvTaskExitError) for prvTaskExitError
    port.o(i.vPortEnterCritical) refers to port.o(.emb_text) for ulPortSetInterruptMask
    port.o(i.vPortEnterCritical) refers to port.o(.data) for .data
    port.o(i.vPortExitCritical) refers to port.o(.emb_text) for vPortClearInterruptMask
    port.o(i.vPortExitCritical) refers to port.o(.data) for .data
    port.o(i.vPortSetupTimerInterrupt) refers to chip_17xx_40xx.o(.data) for SystemCoreClock
    port.o(i.xPortStartScheduler) refers to port.o(i.vPortSetupTimerInterrupt) for vPortSetupTimerInterrupt
    port.o(i.xPortStartScheduler) refers to port.o(.emb_text) for __asm___6_port_c_39a90d8d__prvStartFirstTask
    port.o(i.xPortStartScheduler) refers to port.o(.data) for .data
    heap_3.o(i.pvPortMalloc) refers to tasks.o(i.vTaskSuspendAll) for vTaskSuspendAll
    heap_3.o(i.pvPortMalloc) refers to h1_alloc.o(.text) for malloc
    heap_3.o(i.pvPortMalloc) refers to tasks.o(i.xTaskResumeAll) for xTaskResumeAll
    heap_3.o(i.pvPortMalloc) refers to freertoscommonhooks.o(i.vApplicationMallocFailedHook) for vApplicationMallocFailedHook
    heap_3.o(i.vPortFree) refers to tasks.o(i.vTaskSuspendAll) for vTaskSuspendAll
    heap_3.o(i.vPortFree) refers to h1_free.o(.text) for free
    heap_3.o(i.vPortFree) refers to tasks.o(i.xTaskResumeAll) for xTaskResumeAll
    croutine.o(i.prvCheckDelayedList) refers to tasks.o(i.xTaskGetTickCount) for xTaskGetTickCount
    croutine.o(i.prvCheckDelayedList) refers to port.o(.emb_text) for ulPortSetInterruptMask
    croutine.o(i.prvCheckDelayedList) refers to list.o(i.uxListRemove) for uxListRemove
    croutine.o(i.prvCheckDelayedList) refers to list.o(i.vListInsertEnd) for vListInsertEnd
    croutine.o(i.prvCheckDelayedList) refers to croutine.o(.data) for .data
    croutine.o(i.prvCheckDelayedList) refers to croutine.o(.bss) for .bss
    croutine.o(i.vCoRoutineAddToDelayedList) refers to list.o(i.uxListRemove) for uxListRemove
    croutine.o(i.vCoRoutineAddToDelayedList) refers to list.o(i.vListInsert) for vListInsert
    croutine.o(i.vCoRoutineAddToDelayedList) refers to croutine.o(.data) for .data
    croutine.o(i.vCoRoutineSchedule) refers to port.o(.emb_text) for ulPortSetInterruptMask
    croutine.o(i.vCoRoutineSchedule) refers to list.o(i.uxListRemove) for uxListRemove
    croutine.o(i.vCoRoutineSchedule) refers to list.o(i.vListInsertEnd) for vListInsertEnd
    croutine.o(i.vCoRoutineSchedule) refers to croutine.o(i.prvCheckDelayedList) for prvCheckDelayedList
    croutine.o(i.vCoRoutineSchedule) refers to croutine.o(.bss) for .bss
    croutine.o(i.vCoRoutineSchedule) refers to croutine.o(.data) for .data
    croutine.o(i.xCoRoutineCreate) refers to heap_3.o(i.pvPortMalloc) for pvPortMalloc
    croutine.o(i.xCoRoutineCreate) refers to list.o(i.vListInitialise) for vListInitialise
    croutine.o(i.xCoRoutineCreate) refers to list.o(i.vListInitialiseItem) for vListInitialiseItem
    croutine.o(i.xCoRoutineCreate) refers to list.o(i.vListInsertEnd) for vListInsertEnd
    croutine.o(i.xCoRoutineCreate) refers to croutine.o(.data) for .data
    croutine.o(i.xCoRoutineCreate) refers to croutine.o(.bss) for .bss
    croutine.o(i.xCoRoutineRemoveFromEventList) refers to list.o(i.uxListRemove) for uxListRemove
    croutine.o(i.xCoRoutineRemoveFromEventList) refers to list.o(i.vListInsertEnd) for vListInsertEnd
    croutine.o(i.xCoRoutineRemoveFromEventList) refers to croutine.o(.bss) for .bss
    croutine.o(i.xCoRoutineRemoveFromEventList) refers to croutine.o(.data) for .data
    queue.o(i.prvCopyDataFromQueue) refers to rt_memcpy_v6.o(.text) for __aeabi_memcpy
    queue.o(i.prvCopyDataToQueue) refers to rt_memcpy_v6.o(.text) for __aeabi_memcpy
    queue.o(i.prvCopyDataToQueue) refers to tasks.o(i.vTaskPriorityDisinherit) for vTaskPriorityDisinherit
    queue.o(i.prvUnlockQueue) refers to port.o(i.vPortEnterCritical) for vPortEnterCritical
    queue.o(i.prvUnlockQueue) refers to tasks.o(i.xTaskRemoveFromEventList) for xTaskRemoveFromEventList
    queue.o(i.prvUnlockQueue) refers to tasks.o(i.vTaskMissedYield) for vTaskMissedYield
    queue.o(i.prvUnlockQueue) refers to port.o(i.vPortExitCritical) for vPortExitCritical
    queue.o(i.uxQueueMessagesWaiting) refers to port.o(i.vPortEnterCritical) for vPortEnterCritical
    queue.o(i.uxQueueMessagesWaiting) refers to port.o(i.vPortExitCritical) for vPortExitCritical
    queue.o(i.uxQueueSpacesAvailable) refers to port.o(i.vPortEnterCritical) for vPortEnterCritical
    queue.o(i.uxQueueSpacesAvailable) refers to port.o(i.vPortExitCritical) for vPortExitCritical
    queue.o(i.vQueueAddToRegistry) refers to queue.o(.bss) for .bss
    queue.o(i.vQueueDelete) refers to queue.o(i.vQueueUnregisterQueue) for vQueueUnregisterQueue
    queue.o(i.vQueueDelete) refers to heap_3.o(i.vPortFree) for vPortFree
    queue.o(i.vQueueUnregisterQueue) refers to queue.o(.bss) for .bss
    queue.o(i.xQueueCreateCountingSemaphore) refers to queue.o(i.xQueueGenericCreate) for xQueueGenericCreate
    queue.o(i.xQueueCreateMutex) refers to heap_3.o(i.pvPortMalloc) for pvPortMalloc
    queue.o(i.xQueueCreateMutex) refers to list.o(i.vListInitialise) for vListInitialise
    queue.o(i.xQueueCreateMutex) refers to queue.o(i.xQueueGenericSend) for xQueueGenericSend
    queue.o(i.xQueueGenericCreate) refers to heap_3.o(i.pvPortMalloc) for pvPortMalloc
    queue.o(i.xQueueGenericCreate) refers to queue.o(i.xQueueGenericReset) for xQueueGenericReset
    queue.o(i.xQueueGenericCreate) refers to heap_3.o(i.vPortFree) for vPortFree
    queue.o(i.xQueueGenericReceive) refers to port.o(i.vPortEnterCritical) for vPortEnterCritical
    queue.o(i.xQueueGenericReceive) refers to queue.o(i.prvCopyDataFromQueue) for prvCopyDataFromQueue
    queue.o(i.xQueueGenericReceive) refers to tasks.o(i.xTaskRemoveFromEventList) for xTaskRemoveFromEventList
    queue.o(i.xQueueGenericReceive) refers to port.o(i.vPortYield) for vPortYield
    queue.o(i.xQueueGenericReceive) refers to port.o(i.vPortExitCritical) for vPortExitCritical
    queue.o(i.xQueueGenericReceive) refers to tasks.o(i.xTaskGetCurrentTaskHandle) for xTaskGetCurrentTaskHandle
    queue.o(i.xQueueGenericReceive) refers to tasks.o(i.vTaskSetTimeOutState) for vTaskSetTimeOutState
    queue.o(i.xQueueGenericReceive) refers to tasks.o(i.vTaskSuspendAll) for vTaskSuspendAll
    queue.o(i.xQueueGenericReceive) refers to tasks.o(i.xTaskCheckForTimeOut) for xTaskCheckForTimeOut
    queue.o(i.xQueueGenericReceive) refers to queue.o(i.prvUnlockQueue) for prvUnlockQueue
    queue.o(i.xQueueGenericReceive) refers to tasks.o(i.xTaskResumeAll) for xTaskResumeAll
    queue.o(i.xQueueGenericReceive) refers to tasks.o(i.vTaskPriorityInherit) for vTaskPriorityInherit
    queue.o(i.xQueueGenericReceive) refers to tasks.o(i.vTaskPlaceOnEventList) for vTaskPlaceOnEventList
    queue.o(i.xQueueGenericReset) refers to port.o(i.vPortEnterCritical) for vPortEnterCritical
    queue.o(i.xQueueGenericReset) refers to list.o(i.vListInitialise) for vListInitialise
    queue.o(i.xQueueGenericReset) refers to port.o(i.vPortExitCritical) for vPortExitCritical
    queue.o(i.xQueueGenericReset) refers to tasks.o(i.xTaskRemoveFromEventList) for xTaskRemoveFromEventList
    queue.o(i.xQueueGenericReset) refers to port.o(i.vPortYield) for vPortYield
    queue.o(i.xQueueGenericSend) refers to port.o(i.vPortEnterCritical) for vPortEnterCritical
    queue.o(i.xQueueGenericSend) refers to queue.o(i.prvCopyDataToQueue) for prvCopyDataToQueue
    queue.o(i.xQueueGenericSend) refers to tasks.o(i.xTaskRemoveFromEventList) for xTaskRemoveFromEventList
    queue.o(i.xQueueGenericSend) refers to port.o(i.vPortYield) for vPortYield
    queue.o(i.xQueueGenericSend) refers to port.o(i.vPortExitCritical) for vPortExitCritical
    queue.o(i.xQueueGenericSend) refers to tasks.o(i.vTaskSetTimeOutState) for vTaskSetTimeOutState
    queue.o(i.xQueueGenericSend) refers to tasks.o(i.vTaskSuspendAll) for vTaskSuspendAll
    queue.o(i.xQueueGenericSend) refers to tasks.o(i.xTaskCheckForTimeOut) for xTaskCheckForTimeOut
    queue.o(i.xQueueGenericSend) refers to queue.o(i.prvUnlockQueue) for prvUnlockQueue
    queue.o(i.xQueueGenericSend) refers to tasks.o(i.xTaskResumeAll) for xTaskResumeAll
    queue.o(i.xQueueGenericSend) refers to tasks.o(i.vTaskPlaceOnEventList) for vTaskPlaceOnEventList
    queue.o(i.xQueueGenericSendFromISR) refers to port.o(.emb_text) for ulPortSetInterruptMask
    queue.o(i.xQueueGenericSendFromISR) refers to queue.o(i.prvCopyDataToQueue) for prvCopyDataToQueue
    queue.o(i.xQueueGenericSendFromISR) refers to tasks.o(i.xTaskRemoveFromEventList) for xTaskRemoveFromEventList
    queue.o(i.xQueueGiveMutexRecursive) refers to tasks.o(i.xTaskGetCurrentTaskHandle) for xTaskGetCurrentTaskHandle
    queue.o(i.xQueueGiveMutexRecursive) refers to queue.o(i.xQueueGenericSend) for xQueueGenericSend
    queue.o(i.xQueuePeekFromISR) refers to port.o(.emb_text) for ulPortSetInterruptMask
    queue.o(i.xQueuePeekFromISR) refers to queue.o(i.prvCopyDataFromQueue) for prvCopyDataFromQueue
    queue.o(i.xQueueReceiveFromISR) refers to port.o(.emb_text) for ulPortSetInterruptMask
    queue.o(i.xQueueReceiveFromISR) refers to queue.o(i.prvCopyDataFromQueue) for prvCopyDataFromQueue
    queue.o(i.xQueueReceiveFromISR) refers to tasks.o(i.xTaskRemoveFromEventList) for xTaskRemoveFromEventList
    queue.o(i.xQueueTakeMutexRecursive) refers to tasks.o(i.xTaskGetCurrentTaskHandle) for xTaskGetCurrentTaskHandle
    queue.o(i.xQueueTakeMutexRecursive) refers to queue.o(i.xQueueGenericReceive) for xQueueGenericReceive
    tasks.o(i.prvAddCurrentTaskToDelayedList) refers to list.o(i.vListInsert) for vListInsert
    tasks.o(i.prvAddCurrentTaskToDelayedList) refers to tasks.o(.data) for .data
    tasks.o(i.prvCheckTasksWaitingTermination) refers to tasks.o(i.vTaskSuspendAll) for vTaskSuspendAll
    tasks.o(i.prvCheckTasksWaitingTermination) refers to tasks.o(i.xTaskResumeAll) for xTaskResumeAll
    tasks.o(i.prvCheckTasksWaitingTermination) refers to port.o(i.vPortEnterCritical) for vPortEnterCritical
    tasks.o(i.prvCheckTasksWaitingTermination) refers to list.o(i.uxListRemove) for uxListRemove
    tasks.o(i.prvCheckTasksWaitingTermination) refers to port.o(i.vPortExitCritical) for vPortExitCritical
    tasks.o(i.prvCheckTasksWaitingTermination) refers to heap_3.o(i.vPortFree) for vPortFree
    tasks.o(i.prvCheckTasksWaitingTermination) refers to tasks.o(.bss) for .bss
    tasks.o(i.prvCheckTasksWaitingTermination) refers to tasks.o(.data) for .data
    tasks.o(i.prvIdleTask) refers to tasks.o(i.prvCheckTasksWaitingTermination) for prvCheckTasksWaitingTermination
    tasks.o(i.prvIdleTask) refers to port.o(i.vPortYield) for vPortYield
    tasks.o(i.prvIdleTask) refers to freertoscommonhooks.o(i.vApplicationIdleHook) for vApplicationIdleHook
    tasks.o(i.prvIdleTask) refers to tasks.o(.bss) for .bss
    tasks.o(i.prvListTaskWithinSingleList) refers to tasks.o(i.prvTaskCheckFreeStackSpace) for prvTaskCheckFreeStackSpace
    tasks.o(i.uxTaskGetNumberOfTasks) refers to tasks.o(.data) for .data
    tasks.o(i.uxTaskGetStackHighWaterMark) refers to tasks.o(i.prvTaskCheckFreeStackSpace) for prvTaskCheckFreeStackSpace
    tasks.o(i.uxTaskGetStackHighWaterMark) refers to tasks.o(.data) for .data
    tasks.o(i.uxTaskGetSystemState) refers to tasks.o(i.vTaskSuspendAll) for vTaskSuspendAll
    tasks.o(i.uxTaskGetSystemState) refers to tasks.o(i.prvListTaskWithinSingleList) for prvListTaskWithinSingleList
    tasks.o(i.uxTaskGetSystemState) refers to tasks.o(i.xTaskResumeAll) for xTaskResumeAll
    tasks.o(i.uxTaskGetSystemState) refers to tasks.o(.data) for .data
    tasks.o(i.uxTaskGetSystemState) refers to tasks.o(.bss) for .bss
    tasks.o(i.uxTaskPriorityGet) refers to port.o(i.vPortEnterCritical) for vPortEnterCritical
    tasks.o(i.uxTaskPriorityGet) refers to port.o(i.vPortExitCritical) for vPortExitCritical
    tasks.o(i.uxTaskPriorityGet) refers to tasks.o(.data) for .data
    tasks.o(i.vTaskDelay) refers to tasks.o(i.vTaskSuspendAll) for vTaskSuspendAll
    tasks.o(i.vTaskDelay) refers to list.o(i.uxListRemove) for uxListRemove
    tasks.o(i.vTaskDelay) refers to tasks.o(i.prvAddCurrentTaskToDelayedList) for prvAddCurrentTaskToDelayedList
    tasks.o(i.vTaskDelay) refers to tasks.o(i.xTaskResumeAll) for xTaskResumeAll
    tasks.o(i.vTaskDelay) refers to port.o(i.vPortYield) for vPortYield
    tasks.o(i.vTaskDelay) refers to tasks.o(.data) for .data
    tasks.o(i.vTaskDelayUntil) refers to tasks.o(i.vTaskSuspendAll) for vTaskSuspendAll
    tasks.o(i.vTaskDelayUntil) refers to list.o(i.uxListRemove) for uxListRemove
    tasks.o(i.vTaskDelayUntil) refers to tasks.o(i.prvAddCurrentTaskToDelayedList) for prvAddCurrentTaskToDelayedList
    tasks.o(i.vTaskDelayUntil) refers to tasks.o(i.xTaskResumeAll) for xTaskResumeAll
    tasks.o(i.vTaskDelayUntil) refers to port.o(i.vPortYield) for vPortYield
    tasks.o(i.vTaskDelayUntil) refers to tasks.o(.data) for .data
    tasks.o(i.vTaskDelete) refers to port.o(i.vPortEnterCritical) for vPortEnterCritical
    tasks.o(i.vTaskDelete) refers to list.o(i.uxListRemove) for uxListRemove
    tasks.o(i.vTaskDelete) refers to list.o(i.vListInsertEnd) for vListInsertEnd
    tasks.o(i.vTaskDelete) refers to port.o(i.vPortExitCritical) for vPortExitCritical
    tasks.o(i.vTaskDelete) refers to port.o(i.vPortYield) for vPortYield
    tasks.o(i.vTaskDelete) refers to tasks.o(.data) for .data
    tasks.o(i.vTaskDelete) refers to tasks.o(.bss) for .bss
    tasks.o(i.vTaskEndScheduler) refers to port.o(.emb_text) for ulPortSetInterruptMask
    tasks.o(i.vTaskEndScheduler) refers to port.o(i.vPortEndScheduler) for vPortEndScheduler
    tasks.o(i.vTaskEndScheduler) refers to tasks.o(.data) for .data
    tasks.o(i.vTaskMissedYield) refers to tasks.o(.data) for .data
    tasks.o(i.vTaskPlaceOnEventList) refers to list.o(i.vListInsert) for vListInsert
    tasks.o(i.vTaskPlaceOnEventList) refers to list.o(i.uxListRemove) for uxListRemove
    tasks.o(i.vTaskPlaceOnEventList) refers to tasks.o(i.prvAddCurrentTaskToDelayedList) for prvAddCurrentTaskToDelayedList
    tasks.o(i.vTaskPlaceOnEventList) refers to list.o(i.vListInsertEnd) for vListInsertEnd
    tasks.o(i.vTaskPlaceOnEventList) refers to tasks.o(.data) for .data
    tasks.o(i.vTaskPlaceOnEventList) refers to tasks.o(.bss) for .bss
    tasks.o(i.vTaskPriorityDisinherit) refers to list.o(i.uxListRemove) for uxListRemove
    tasks.o(i.vTaskPriorityDisinherit) refers to list.o(i.vListInsertEnd) for vListInsertEnd
    tasks.o(i.vTaskPriorityDisinherit) refers to tasks.o(.data) for .data
    tasks.o(i.vTaskPriorityDisinherit) refers to tasks.o(.bss) for .bss
    tasks.o(i.vTaskPriorityInherit) refers to list.o(i.uxListRemove) for uxListRemove
    tasks.o(i.vTaskPriorityInherit) refers to list.o(i.vListInsertEnd) for vListInsertEnd
    tasks.o(i.vTaskPriorityInherit) refers to tasks.o(.data) for .data
    tasks.o(i.vTaskPriorityInherit) refers to tasks.o(.bss) for .bss
    tasks.o(i.vTaskPrioritySet) refers to port.o(i.vPortEnterCritical) for vPortEnterCritical
    tasks.o(i.vTaskPrioritySet) refers to list.o(i.uxListRemove) for uxListRemove
    tasks.o(i.vTaskPrioritySet) refers to list.o(i.vListInsertEnd) for vListInsertEnd
    tasks.o(i.vTaskPrioritySet) refers to port.o(i.vPortYield) for vPortYield
    tasks.o(i.vTaskPrioritySet) refers to port.o(i.vPortExitCritical) for vPortExitCritical
    tasks.o(i.vTaskPrioritySet) refers to tasks.o(.data) for .data
    tasks.o(i.vTaskPrioritySet) refers to tasks.o(.bss) for .bss
    tasks.o(i.vTaskResume) refers to port.o(i.vPortEnterCritical) for vPortEnterCritical
    tasks.o(i.vTaskResume) refers to tasks.o(i.xTaskIsTaskSuspended) for xTaskIsTaskSuspended
    tasks.o(i.vTaskResume) refers to list.o(i.uxListRemove) for uxListRemove
    tasks.o(i.vTaskResume) refers to list.o(i.vListInsertEnd) for vListInsertEnd
    tasks.o(i.vTaskResume) refers to port.o(i.vPortYield) for vPortYield
    tasks.o(i.vTaskResume) refers to port.o(i.vPortExitCritical) for vPortExitCritical
    tasks.o(i.vTaskResume) refers to tasks.o(.data) for .data
    tasks.o(i.vTaskResume) refers to tasks.o(.bss) for .bss
    tasks.o(i.vTaskSetTimeOutState) refers to tasks.o(.data) for .data
    tasks.o(i.vTaskStartScheduler) refers to tasks.o(i.xTaskGenericCreate) for xTaskGenericCreate
    tasks.o(i.vTaskStartScheduler) refers to port.o(.emb_text) for ulPortSetInterruptMask
    tasks.o(i.vTaskStartScheduler) refers to port.o(i.xPortStartScheduler) for xPortStartScheduler
    tasks.o(i.vTaskStartScheduler) refers to tasks.o(i.prvIdleTask) for prvIdleTask
    tasks.o(i.vTaskStartScheduler) refers to tasks.o(.data) for .data
    tasks.o(i.vTaskSuspend) refers to port.o(i.vPortEnterCritical) for vPortEnterCritical
    tasks.o(i.vTaskSuspend) refers to list.o(i.uxListRemove) for uxListRemove
    tasks.o(i.vTaskSuspend) refers to list.o(i.vListInsertEnd) for vListInsertEnd
    tasks.o(i.vTaskSuspend) refers to port.o(i.vPortExitCritical) for vPortExitCritical
    tasks.o(i.vTaskSuspend) refers to port.o(i.vPortYield) for vPortYield
    tasks.o(i.vTaskSuspend) refers to tasks.o(i.vTaskSwitchContext) for vTaskSwitchContext
    tasks.o(i.vTaskSuspend) refers to tasks.o(.data) for .data
    tasks.o(i.vTaskSuspend) refers to tasks.o(.bss) for .bss
    tasks.o(i.vTaskSuspendAll) refers to tasks.o(.data) for .data
    tasks.o(i.vTaskSwitchContext) refers to freertoscommonhooks.o(i.vApplicationStackOverflowHook) for vApplicationStackOverflowHook
    tasks.o(i.vTaskSwitchContext) refers to tasks.o(.data) for .data
    tasks.o(i.vTaskSwitchContext) refers to tasks.o(.bss) for .bss
    tasks.o(i.xTaskCheckForTimeOut) refers to port.o(i.vPortEnterCritical) for vPortEnterCritical
    tasks.o(i.xTaskCheckForTimeOut) refers to tasks.o(i.vTaskSetTimeOutState) for vTaskSetTimeOutState
    tasks.o(i.xTaskCheckForTimeOut) refers to port.o(i.vPortExitCritical) for vPortExitCritical
    tasks.o(i.xTaskCheckForTimeOut) refers to tasks.o(.data) for .data
    tasks.o(i.xTaskGenericCreate) refers to heap_3.o(i.pvPortMalloc) for pvPortMalloc
    tasks.o(i.xTaskGenericCreate) refers to aeabi_memset.o(.text) for __aeabi_memset
    tasks.o(i.xTaskGenericCreate) refers to list.o(i.vListInitialiseItem) for vListInitialiseItem
    tasks.o(i.xTaskGenericCreate) refers to port.o(i.pxPortInitialiseStack) for pxPortInitialiseStack
    tasks.o(i.xTaskGenericCreate) refers to port.o(i.vPortEnterCritical) for vPortEnterCritical
    tasks.o(i.xTaskGenericCreate) refers to heap_3.o(i.vPortFree) for vPortFree
    tasks.o(i.xTaskGenericCreate) refers to list.o(i.vListInitialise) for vListInitialise
    tasks.o(i.xTaskGenericCreate) refers to list.o(i.vListInsertEnd) for vListInsertEnd
    tasks.o(i.xTaskGenericCreate) refers to port.o(i.vPortExitCritical) for vPortExitCritical
    tasks.o(i.xTaskGenericCreate) refers to port.o(i.vPortYield) for vPortYield
    tasks.o(i.xTaskGenericCreate) refers to tasks.o(.data) for .data
    tasks.o(i.xTaskGenericCreate) refers to tasks.o(.bss) for .bss
    tasks.o(i.xTaskGetCurrentTaskHandle) refers to tasks.o(.data) for .data
    tasks.o(i.xTaskGetTickCount) refers to port.o(i.vPortEnterCritical) for vPortEnterCritical
    tasks.o(i.xTaskGetTickCount) refers to port.o(i.vPortExitCritical) for vPortExitCritical
    tasks.o(i.xTaskGetTickCount) refers to tasks.o(.data) for .data
    tasks.o(i.xTaskGetTickCountFromISR) refers to port.o(.emb_text) for ulPortSetInterruptMask
    tasks.o(i.xTaskGetTickCountFromISR) refers to tasks.o(.data) for .data
    tasks.o(i.xTaskIncrementTick) refers to list.o(i.uxListRemove) for uxListRemove
    tasks.o(i.xTaskIncrementTick) refers to list.o(i.vListInsertEnd) for vListInsertEnd
    tasks.o(i.xTaskIncrementTick) refers to tasks.o(.data) for .data
    tasks.o(i.xTaskIncrementTick) refers to tasks.o(.bss) for .bss
    tasks.o(i.xTaskIsTaskSuspended) refers to tasks.o(.bss) for .bss
    tasks.o(i.xTaskRemoveFromEventList) refers to list.o(i.uxListRemove) for uxListRemove
    tasks.o(i.xTaskRemoveFromEventList) refers to list.o(i.vListInsertEnd) for vListInsertEnd
    tasks.o(i.xTaskRemoveFromEventList) refers to tasks.o(.data) for .data
    tasks.o(i.xTaskRemoveFromEventList) refers to tasks.o(.bss) for .bss
    tasks.o(i.xTaskResumeAll) refers to port.o(i.vPortEnterCritical) for vPortEnterCritical
    tasks.o(i.xTaskResumeAll) refers to list.o(i.uxListRemove) for uxListRemove
    tasks.o(i.xTaskResumeAll) refers to list.o(i.vListInsertEnd) for vListInsertEnd
    tasks.o(i.xTaskResumeAll) refers to tasks.o(i.xTaskIncrementTick) for xTaskIncrementTick
    tasks.o(i.xTaskResumeAll) refers to port.o(i.vPortYield) for vPortYield
    tasks.o(i.xTaskResumeAll) refers to port.o(i.vPortExitCritical) for vPortExitCritical
    tasks.o(i.xTaskResumeAll) refers to tasks.o(.data) for .data
    tasks.o(i.xTaskResumeAll) refers to tasks.o(.bss) for .bss
    tasks.o(i.xTaskResumeFromISR) refers to port.o(.emb_text) for ulPortSetInterruptMask
    tasks.o(i.xTaskResumeFromISR) refers to tasks.o(i.xTaskIsTaskSuspended) for xTaskIsTaskSuspended
    tasks.o(i.xTaskResumeFromISR) refers to list.o(i.uxListRemove) for uxListRemove
    tasks.o(i.xTaskResumeFromISR) refers to list.o(i.vListInsertEnd) for vListInsertEnd
    tasks.o(i.xTaskResumeFromISR) refers to tasks.o(.data) for .data
    tasks.o(i.xTaskResumeFromISR) refers to tasks.o(.bss) for .bss
    freertoscommonhooks.o(i.FreeRTOSDelay) refers to tasks.o(i.xTaskGetTickCount) for xTaskGetTickCount
    freertoscommonhooks.o(i.FreeRTOSDelay) refers to tasks.o(i.vTaskDelayUntil) for vTaskDelayUntil
    freertoscommonhooks.o(i.vApplicationMallocFailedHook) refers to board.o(i.Board_UARTPutSTR) for Board_UARTPutSTR
    freertoscommonhooks.o(i.vApplicationMallocFailedHook) refers to port.o(.emb_text) for ulPortSetInterruptMask
    freertoscommonhooks.o(i.vApplicationStackOverflowHook) refers to _printf_percent.o(.ARM.Collect$$_printf_percent$$00000000) for _printf_percent
    freertoscommonhooks.o(i.vApplicationStackOverflowHook) refers to _printf_s.o(.ARM.Collect$$_printf_percent$$00000014) for _printf_s
    freertoscommonhooks.o(i.vApplicationStackOverflowHook) refers to _printf_str.o(.text) for _printf_str
    freertoscommonhooks.o(i.vApplicationStackOverflowHook) refers to noretval__2printf.o(.text) for __2printf
    freertoscommonhooks.o(i.vApplicationStackOverflowHook) refers to port.o(.emb_text) for ulPortSetInterruptMask
    udp.o(i.udp_bind) refers to lpc_debug.o(i.assert_loop) for assert_loop
    udp.o(i.udp_bind) refers to udp.o(.data) for .data
    udp.o(i.udp_connect) refers to udp.o(i.udp_bind) for udp_bind
    udp.o(i.udp_connect) refers to udp.o(.data) for .data
    udp.o(i.udp_input) refers to pbuf.o(i.pbuf_header) for pbuf_header
    udp.o(i.udp_input) refers to ip_addr.o(i.ip4_addr_isbroadcast) for ip4_addr_isbroadcast
    udp.o(i.udp_input) refers to def.o(i.lwip_ntohs) for lwip_ntohs
    udp.o(i.udp_input) refers to inet_chksum.o(i.inet_chksum_pseudo) for inet_chksum_pseudo
    udp.o(i.udp_input) refers to lpc_debug.o(i.assert_loop) for assert_loop
    udp.o(i.udp_input) refers to icmp.o(i.icmp_dest_unreach) for icmp_dest_unreach
    udp.o(i.udp_input) refers to pbuf.o(i.pbuf_free) for pbuf_free
    udp.o(i.udp_input) refers to ip.o(.data) for current_iphdr_dest
    udp.o(i.udp_input) refers to udp.o(.data) for .data
    udp.o(i.udp_new) refers to h1_alloc.o(.text) for malloc
    udp.o(i.udp_new) refers to rt_memclr_w.o(.text) for __aeabi_memclr4
    udp.o(i.udp_new) refers to memp.o(.constdata) for memp_sizes
    udp.o(i.udp_remove) refers to h1_free.o(.text) for free
    udp.o(i.udp_remove) refers to udp.o(.data) for .data
    udp.o(i.udp_send) refers to udp.o(i.udp_sendto_chksum) for udp_sendto_chksum
    udp.o(i.udp_send_chksum) refers to udp.o(i.udp_sendto_chksum) for udp_sendto_chksum
    udp.o(i.udp_sendto) refers to udp.o(i.udp_sendto_chksum) for udp_sendto_chksum
    udp.o(i.udp_sendto_chksum) refers to ip.o(i.ip_route) for ip_route
    udp.o(i.udp_sendto_chksum) refers to udp.o(i.udp_sendto_if_chksum) for udp_sendto_if_chksum
    udp.o(i.udp_sendto_if) refers to udp.o(i.udp_sendto_if_chksum) for udp_sendto_if_chksum
    udp.o(i.udp_sendto_if_chksum) refers to ip_addr.o(i.ip4_addr_isbroadcast) for ip4_addr_isbroadcast
    udp.o(i.udp_sendto_if_chksum) refers to udp.o(i.udp_bind) for udp_bind
    udp.o(i.udp_sendto_if_chksum) refers to pbuf.o(i.pbuf_header) for pbuf_header
    udp.o(i.udp_sendto_if_chksum) refers to pbuf.o(i.pbuf_alloc) for pbuf_alloc
    udp.o(i.udp_sendto_if_chksum) refers to pbuf.o(i.pbuf_chain) for pbuf_chain
    udp.o(i.udp_sendto_if_chksum) refers to lpc_debug.o(i.assert_loop) for assert_loop
    udp.o(i.udp_sendto_if_chksum) refers to def.o(i.lwip_htons) for lwip_htons
    udp.o(i.udp_sendto_if_chksum) refers to pbuf.o(i.pbuf_free) for pbuf_free
    udp.o(i.udp_sendto_if_chksum) refers to inet_chksum.o(i.inet_chksum_pseudo_partial) for inet_chksum_pseudo_partial
    udp.o(i.udp_sendto_if_chksum) refers to inet_chksum.o(i.inet_chksum_pseudo) for inet_chksum_pseudo
    udp.o(i.udp_sendto_if_chksum) refers to ip.o(i.ip_output_if) for ip_output_if
    timers.o(i.arp_timer) refers to etharp.o(i.etharp_tmr) for etharp_tmr
    timers.o(i.arp_timer) refers to timers.o(i.sys_timeout) for sys_timeout
    timers.o(i.dhcp_timer_coarse) refers to dhcp.o(i.dhcp_coarse_tmr) for dhcp_coarse_tmr
    timers.o(i.dhcp_timer_coarse) refers to timers.o(i.sys_timeout) for sys_timeout
    timers.o(i.dhcp_timer_fine) refers to dhcp.o(i.dhcp_fine_tmr) for dhcp_fine_tmr
    timers.o(i.dhcp_timer_fine) refers to timers.o(i.sys_timeout) for sys_timeout
    timers.o(i.ip_reass_timer) refers to ip_frag.o(i.ip_reass_tmr) for ip_reass_tmr
    timers.o(i.ip_reass_timer) refers to timers.o(i.sys_timeout) for sys_timeout
    timers.o(i.sys_timeout) refers to h1_alloc.o(.text) for malloc
    timers.o(i.sys_timeout) refers to lpc_debug.o(i.assert_loop) for assert_loop
    timers.o(i.sys_timeout) refers to memp.o(.constdata) for memp_sizes
    timers.o(i.sys_timeout) refers to timers.o(.data) for .data
    timers.o(i.sys_timeouts_init) refers to timers.o(i.sys_timeout) for sys_timeout
    timers.o(i.sys_timeouts_init) refers to timers.o(i.ip_reass_timer) for ip_reass_timer
    timers.o(i.sys_timeouts_init) refers to timers.o(i.arp_timer) for arp_timer
    timers.o(i.sys_timeouts_init) refers to timers.o(i.dhcp_timer_coarse) for dhcp_timer_coarse
    timers.o(i.sys_timeouts_init) refers to timers.o(i.dhcp_timer_fine) for dhcp_timer_fine
    timers.o(i.sys_timeouts_mbox_fetch) refers to sys_arch_freertos.o(i.sys_arch_mbox_fetch) for sys_arch_mbox_fetch
    timers.o(i.sys_timeouts_mbox_fetch) refers to h1_free.o(.text) for free
    timers.o(i.sys_timeouts_mbox_fetch) refers to timers.o(.data) for .data
    timers.o(i.sys_untimeout) refers to h1_free.o(.text) for free
    timers.o(i.sys_untimeout) refers to timers.o(.data) for .data
    timers.o(i.tcp_timer_needed) refers to timers.o(i.sys_timeout) for sys_timeout
    timers.o(i.tcp_timer_needed) refers to timers.o(.data) for .data
    timers.o(i.tcp_timer_needed) refers to tcp.o(.data) for tcp_active_pcbs
    timers.o(i.tcp_timer_needed) refers to timers.o(i.tcpip_tcp_timer) for tcpip_tcp_timer
    timers.o(i.tcpip_tcp_timer) refers to tcp.o(i.tcp_tmr) for tcp_tmr
    timers.o(i.tcpip_tcp_timer) refers to timers.o(i.sys_timeout) for sys_timeout
    timers.o(i.tcpip_tcp_timer) refers to tcp.o(.data) for tcp_active_pcbs
    timers.o(i.tcpip_tcp_timer) refers to timers.o(.data) for .data
    tcp_out.o(i.tcp_create_segment) refers to h1_alloc.o(.text) for malloc
    tcp_out.o(i.tcp_create_segment) refers to lpc_debug.o(i.assert_loop) for assert_loop
    tcp_out.o(i.tcp_create_segment) refers to pbuf.o(i.pbuf_header) for pbuf_header
    tcp_out.o(i.tcp_create_segment) refers to tcp.o(i.tcp_seg_free) for tcp_seg_free
    tcp_out.o(i.tcp_create_segment) refers to pbuf.o(i.pbuf_free) for pbuf_free
    tcp_out.o(i.tcp_create_segment) refers to def.o(i.lwip_htons) for lwip_htons
    tcp_out.o(i.tcp_create_segment) refers to def.o(i.lwip_htonl) for lwip_htonl
    tcp_out.o(i.tcp_create_segment) refers to memp.o(.constdata) for memp_sizes
    tcp_out.o(i.tcp_enqueue_flags) refers to lpc_debug.o(i.assert_loop) for assert_loop
    tcp_out.o(i.tcp_enqueue_flags) refers to pbuf.o(i.pbuf_alloc) for pbuf_alloc
    tcp_out.o(i.tcp_enqueue_flags) refers to tcp_out.o(i.tcp_create_segment) for tcp_create_segment
    tcp_out.o(i.tcp_enqueue_flags) refers to pbuf.o(i.pbuf_clen) for pbuf_clen
    tcp_out.o(i.tcp_keepalive) refers to def.o(i.lwip_htonl) for lwip_htonl
    tcp_out.o(i.tcp_keepalive) refers to tcp_out.o(i.tcp_output_alloc_header) for tcp_output_alloc_header
    tcp_out.o(i.tcp_keepalive) refers to inet_chksum.o(i.inet_chksum_pseudo) for inet_chksum_pseudo
    tcp_out.o(i.tcp_keepalive) refers to ip.o(i.ip_output) for ip_output
    tcp_out.o(i.tcp_keepalive) refers to pbuf.o(i.pbuf_free) for pbuf_free
    tcp_out.o(i.tcp_output) refers to lpc_debug.o(i.assert_loop) for assert_loop
    tcp_out.o(i.tcp_output) refers to def.o(i.lwip_ntohl) for lwip_ntohl
    tcp_out.o(i.tcp_output) refers to tcp_out.o(i.tcp_send_empty_ack) for tcp_send_empty_ack
    tcp_out.o(i.tcp_output) refers to def.o(i.lwip_ntohs) for lwip_ntohs
    tcp_out.o(i.tcp_output) refers to def.o(i.lwip_htons) for lwip_htons
    tcp_out.o(i.tcp_output) refers to tcp_out.o(i.tcp_output_segment) for tcp_output_segment
    tcp_out.o(i.tcp_output) refers to tcp.o(i.tcp_seg_free) for tcp_seg_free
    tcp_out.o(i.tcp_output) refers to tcp_in.o(.data) for tcp_input_pcb
    tcp_out.o(i.tcp_output_alloc_header) refers to pbuf.o(i.pbuf_alloc) for pbuf_alloc
    tcp_out.o(i.tcp_output_alloc_header) refers to lpc_debug.o(i.assert_loop) for assert_loop
    tcp_out.o(i.tcp_output_alloc_header) refers to def.o(i.lwip_htons) for lwip_htons
    tcp_out.o(i.tcp_output_alloc_header) refers to def.o(i.lwip_htonl) for lwip_htonl
    tcp_out.o(i.tcp_output_segment) refers to def.o(i.lwip_htonl) for lwip_htonl
    tcp_out.o(i.tcp_output_segment) refers to def.o(i.lwip_htons) for lwip_htons
    tcp_out.o(i.tcp_output_segment) refers to tcp.o(i.tcp_eff_send_mss) for tcp_eff_send_mss
    tcp_out.o(i.tcp_output_segment) refers to ip.o(i.ip_route) for ip_route
    tcp_out.o(i.tcp_output_segment) refers to def.o(i.lwip_ntohl) for lwip_ntohl
    tcp_out.o(i.tcp_output_segment) refers to def.o(i.lwip_ntohs) for lwip_ntohs
    tcp_out.o(i.tcp_output_segment) refers to lpc_debug.o(i.assert_loop) for assert_loop
    tcp_out.o(i.tcp_output_segment) refers to inet_chksum.o(i.inet_chksum_pseudo_partial) for inet_chksum_pseudo_partial
    tcp_out.o(i.tcp_output_segment) refers to ip.o(i.ip_output) for ip_output
    tcp_out.o(i.tcp_output_segment) refers to tcp.o(.data) for tcp_ticks
    tcp_out.o(i.tcp_pbuf_prealloc) refers to pbuf.o(i.pbuf_alloc) for pbuf_alloc
    tcp_out.o(i.tcp_pbuf_prealloc) refers to lpc_debug.o(i.assert_loop) for assert_loop
    tcp_out.o(i.tcp_rexmit) refers to def.o(i.lwip_ntohl) for lwip_ntohl
    tcp_out.o(i.tcp_rexmit_fast) refers to tcp_out.o(i.tcp_rexmit) for tcp_rexmit
    tcp_out.o(i.tcp_rexmit_rto) refers to tcp_out.o(i.tcp_output) for tcp_output
    tcp_out.o(i.tcp_rst) refers to pbuf.o(i.pbuf_alloc) for pbuf_alloc
    tcp_out.o(i.tcp_rst) refers to lpc_debug.o(i.assert_loop) for assert_loop
    tcp_out.o(i.tcp_rst) refers to def.o(i.lwip_htons) for lwip_htons
    tcp_out.o(i.tcp_rst) refers to def.o(i.lwip_htonl) for lwip_htonl
    tcp_out.o(i.tcp_rst) refers to inet_chksum.o(i.inet_chksum_pseudo) for inet_chksum_pseudo
    tcp_out.o(i.tcp_rst) refers to ip.o(i.ip_output) for ip_output
    tcp_out.o(i.tcp_rst) refers to pbuf.o(i.pbuf_free) for pbuf_free
    tcp_out.o(i.tcp_send_empty_ack) refers to def.o(i.lwip_htonl) for lwip_htonl
    tcp_out.o(i.tcp_send_empty_ack) refers to tcp_out.o(i.tcp_output_alloc_header) for tcp_output_alloc_header
    tcp_out.o(i.tcp_send_empty_ack) refers to inet_chksum.o(i.inet_chksum_pseudo) for inet_chksum_pseudo
    tcp_out.o(i.tcp_send_empty_ack) refers to ip.o(i.ip_output) for ip_output
    tcp_out.o(i.tcp_send_empty_ack) refers to pbuf.o(i.pbuf_free) for pbuf_free
    tcp_out.o(i.tcp_send_fin) refers to def.o(i.lwip_ntohs) for lwip_ntohs
    tcp_out.o(i.tcp_send_fin) refers to tcp_out.o(i.tcp_enqueue_flags) for tcp_enqueue_flags
    tcp_out.o(i.tcp_send_fin) refers to def.o(i.lwip_htons) for lwip_htons
    tcp_out.o(i.tcp_write) refers to tcp_out.o(i.tcp_write_checks) for tcp_write_checks
    tcp_out.o(i.tcp_write) refers to lpc_debug.o(i.assert_loop) for assert_loop
    tcp_out.o(i.tcp_write) refers to tcp_out.o(i.tcp_pbuf_prealloc) for tcp_pbuf_prealloc
    tcp_out.o(i.tcp_write) refers to inet_chksum.o(i.lwip_chksum_copy) for lwip_chksum_copy
    tcp_out.o(i.tcp_write) refers to tcp_out.o(i.tcp_seg_add_chksum) for tcp_seg_add_chksum
    tcp_out.o(i.tcp_write) refers to pbuf.o(i.pbuf_alloc) for pbuf_alloc
    tcp_out.o(i.tcp_write) refers to inet_chksum.o(i.inet_chksum) for inet_chksum
    tcp_out.o(i.tcp_write) refers to pbuf.o(i.pbuf_clen) for pbuf_clen
    tcp_out.o(i.tcp_write) refers to pbuf.o(i.pbuf_cat) for pbuf_cat
    tcp_out.o(i.tcp_write) refers to pbuf.o(i.pbuf_free) for pbuf_free
    tcp_out.o(i.tcp_write) refers to tcp_out.o(i.tcp_create_segment) for tcp_create_segment
    tcp_out.o(i.tcp_write) refers to def.o(i.lwip_htons) for lwip_htons
    tcp_out.o(i.tcp_write) refers to tcp.o(i.tcp_segs_free) for tcp_segs_free
    tcp_out.o(i.tcp_write_checks) refers to lpc_debug.o(i.assert_loop) for assert_loop
    tcp_out.o(i.tcp_zero_window_probe) refers to def.o(i.lwip_ntohs) for lwip_ntohs
    tcp_out.o(i.tcp_zero_window_probe) refers to tcp_out.o(i.tcp_output_alloc_header) for tcp_output_alloc_header
    tcp_out.o(i.tcp_zero_window_probe) refers to def.o(i.lwip_htons) for lwip_htons
    tcp_out.o(i.tcp_zero_window_probe) refers to pbuf.o(i.pbuf_copy_partial) for pbuf_copy_partial
    tcp_out.o(i.tcp_zero_window_probe) refers to inet_chksum.o(i.inet_chksum_pseudo) for inet_chksum_pseudo
    tcp_out.o(i.tcp_zero_window_probe) refers to ip.o(i.ip_output) for ip_output
    tcp_out.o(i.tcp_zero_window_probe) refers to pbuf.o(i.pbuf_free) for pbuf_free
    tcp_in.o(i.tcp_input) refers to pbuf.o(i.pbuf_header) for pbuf_header
    tcp_in.o(i.tcp_input) refers to ip_addr.o(i.ip4_addr_isbroadcast) for ip4_addr_isbroadcast
    tcp_in.o(i.tcp_input) refers to inet_chksum.o(i.inet_chksum_pseudo) for inet_chksum_pseudo
    tcp_in.o(i.tcp_input) refers to def.o(i.lwip_ntohs) for lwip_ntohs
    tcp_in.o(i.tcp_input) refers to def.o(i.lwip_ntohl) for lwip_ntohl
    tcp_in.o(i.tcp_input) refers to lpc_debug.o(i.assert_loop) for assert_loop
    tcp_in.o(i.tcp_input) refers to tcp.o(i.tcp_process_refused_data) for tcp_process_refused_data
    tcp_in.o(i.tcp_input) refers to tcp_in.o(i.tcp_timewait_input) for tcp_timewait_input
    tcp_in.o(i.tcp_input) refers to tcp_in.o(i.tcp_listen_input) for tcp_listen_input
    tcp_in.o(i.tcp_input) refers to tcp_in.o(i.tcp_process) for tcp_process
    tcp_in.o(i.tcp_input) refers to tcp.o(i.tcp_pcb_remove) for tcp_pcb_remove
    tcp_in.o(i.tcp_input) refers to h1_free.o(.text) for free
    tcp_in.o(i.tcp_input) refers to pbuf.o(i.pbuf_free) for pbuf_free
    tcp_in.o(i.tcp_input) refers to tcp.o(i.tcp_abort) for tcp_abort
    tcp_in.o(i.tcp_input) refers to tcp.o(i.tcp_recv_null) for tcp_recv_null
    tcp_in.o(i.tcp_input) refers to tcp_out.o(i.tcp_output) for tcp_output
    tcp_in.o(i.tcp_input) refers to tcp_out.o(i.tcp_rst) for tcp_rst
    tcp_in.o(i.tcp_input) refers to tcp_in.o(.data) for .data
    tcp_in.o(i.tcp_input) refers to ip.o(.data) for current_iphdr_dest
    tcp_in.o(i.tcp_input) refers to tcp.o(.data) for tcp_active_pcbs
    tcp_in.o(i.tcp_input) refers to tcp_in.o(.bss) for .bss
    tcp_in.o(i.tcp_listen_input) refers to tcp_out.o(i.tcp_rst) for tcp_rst
    tcp_in.o(i.tcp_listen_input) refers to tcp.o(i.tcp_alloc) for tcp_alloc
    tcp_in.o(i.tcp_listen_input) refers to timers.o(i.tcp_timer_needed) for tcp_timer_needed
    tcp_in.o(i.tcp_listen_input) refers to tcp_in.o(i.tcp_parseopt) for tcp_parseopt
    tcp_in.o(i.tcp_listen_input) refers to tcp.o(i.tcp_eff_send_mss) for tcp_eff_send_mss
    tcp_in.o(i.tcp_listen_input) refers to tcp_out.o(i.tcp_enqueue_flags) for tcp_enqueue_flags
    tcp_in.o(i.tcp_listen_input) refers to tcp.o(i.tcp_abandon) for tcp_abandon
    tcp_in.o(i.tcp_listen_input) refers to tcp_out.o(i.tcp_output) for tcp_output
    tcp_in.o(i.tcp_listen_input) refers to tcp_in.o(.data) for .data
    tcp_in.o(i.tcp_listen_input) refers to ip.o(.data) for current_iphdr_src
    tcp_in.o(i.tcp_listen_input) refers to tcp.o(.data) for tcp_active_pcbs
    tcp_in.o(i.tcp_oos_insert_segment) refers to def.o(i.lwip_ntohs) for lwip_ntohs
    tcp_in.o(i.tcp_oos_insert_segment) refers to tcp.o(i.tcp_segs_free) for tcp_segs_free
    tcp_in.o(i.tcp_oos_insert_segment) refers to def.o(i.lwip_htons) for lwip_htons
    tcp_in.o(i.tcp_oos_insert_segment) refers to tcp.o(i.tcp_seg_free) for tcp_seg_free
    tcp_in.o(i.tcp_oos_insert_segment) refers to pbuf.o(i.pbuf_realloc) for pbuf_realloc
    tcp_in.o(i.tcp_oos_insert_segment) refers to tcp_in.o(.data) for .data
    tcp_in.o(i.tcp_parseopt) refers to def.o(i.lwip_ntohs) for lwip_ntohs
    tcp_in.o(i.tcp_parseopt) refers to tcp_in.o(.data) for .data
    tcp_in.o(i.tcp_process) refers to lpc_debug.o(i.assert_loop) for assert_loop
    tcp_in.o(i.tcp_process) refers to tcp_in.o(i.tcp_parseopt) for tcp_parseopt
    tcp_in.o(i.tcp_process) refers to def.o(i.lwip_ntohl) for lwip_ntohl
    tcp_in.o(i.tcp_process) refers to tcp.o(i.tcp_eff_send_mss) for tcp_eff_send_mss
    tcp_in.o(i.tcp_process) refers to tcp.o(i.tcp_seg_free) for tcp_seg_free
    tcp_in.o(i.tcp_process) refers to tcp.o(i.tcp_abort) for tcp_abort
    tcp_in.o(i.tcp_process) refers to tcp_in.o(i.tcp_receive) for tcp_receive
    tcp_in.o(i.tcp_process) refers to tcp_out.o(i.tcp_rst) for tcp_rst
    tcp_in.o(i.tcp_process) refers to tcp_out.o(i.tcp_rexmit) for tcp_rexmit
    tcp_in.o(i.tcp_process) refers to tcp.o(i.tcp_pcb_purge) for tcp_pcb_purge
    tcp_in.o(i.tcp_process) refers to timers.o(i.tcp_timer_needed) for tcp_timer_needed
    tcp_in.o(i.tcp_process) refers to tcp_in.o(.data) for .data
    tcp_in.o(i.tcp_process) refers to tcp.o(.data) for tcp_ticks
    tcp_in.o(i.tcp_process) refers to ip.o(.data) for current_iphdr_src
    tcp_in.o(i.tcp_receive) refers to lpc_debug.o(i.assert_loop) for assert_loop
    tcp_in.o(i.tcp_receive) refers to tcp_out.o(i.tcp_rexmit_fast) for tcp_rexmit_fast
    tcp_in.o(i.tcp_receive) refers to pbuf.o(i.pbuf_clen) for pbuf_clen
    tcp_in.o(i.tcp_receive) refers to def.o(i.lwip_ntohs) for lwip_ntohs
    tcp_in.o(i.tcp_receive) refers to tcp.o(i.tcp_seg_free) for tcp_seg_free
    tcp_in.o(i.tcp_receive) refers to def.o(i.lwip_ntohl) for lwip_ntohl
    tcp_in.o(i.tcp_receive) refers to pbuf.o(i.pbuf_header) for pbuf_header
    tcp_in.o(i.tcp_receive) refers to def.o(i.lwip_htons) for lwip_htons
    tcp_in.o(i.tcp_receive) refers to tcp_in.o(.data) for .data
    tcp_in.o(i.tcp_receive) refers to tcp.o(.data) for tcp_ticks
    tcp_in.o(i.tcp_receive) refers to tcp_in.o(.bss) for .bss
    tcp_in.o(i.tcp_receive) refers to pbuf.o(i.pbuf_realloc) for pbuf_realloc
    tcp_in.o(i.tcp_receive) refers to tcp.o(i.tcp_update_rcv_ann_wnd) for tcp_update_rcv_ann_wnd
    tcp_in.o(i.tcp_receive) refers to pbuf.o(i.pbuf_cat) for pbuf_cat
    tcp_in.o(i.tcp_receive) refers to tcp_out.o(i.tcp_send_empty_ack) for tcp_send_empty_ack
    tcp_in.o(i.tcp_receive) refers to tcp.o(i.tcp_seg_copy) for tcp_seg_copy
    tcp_in.o(i.tcp_receive) refers to tcp_in.o(i.tcp_oos_insert_segment) for tcp_oos_insert_segment
    tcp_in.o(i.tcp_timewait_input) refers to tcp_out.o(i.tcp_rst) for tcp_rst
    tcp_in.o(i.tcp_timewait_input) refers to tcp_out.o(i.tcp_output) for tcp_output
    tcp_in.o(i.tcp_timewait_input) refers to tcp_in.o(.data) for .data
    tcp_in.o(i.tcp_timewait_input) refers to ip.o(.data) for current_iphdr_src
    tcp_in.o(i.tcp_timewait_input) refers to tcp.o(.data) for tcp_ticks
    tcp.o(i.tcp_abandon) refers to lpc_debug.o(i.assert_loop) for assert_loop
    tcp.o(i.tcp_abandon) refers to tcp.o(i.tcp_pcb_remove) for tcp_pcb_remove
    tcp.o(i.tcp_abandon) refers to tcp.o(i.tcp_segs_free) for tcp_segs_free
    tcp.o(i.tcp_abandon) refers to tcp_out.o(i.tcp_rst) for tcp_rst
    tcp.o(i.tcp_abandon) refers to h1_free.o(.text) for free
    tcp.o(i.tcp_abandon) refers to tcp.o(.data) for .data
    tcp.o(i.tcp_abort) refers to tcp.o(i.tcp_abandon) for tcp_abandon
    tcp.o(i.tcp_alloc) refers to h1_alloc.o(.text) for malloc
    tcp.o(i.tcp_alloc) refers to tcp.o(i.tcp_abort) for tcp_abort
    tcp.o(i.tcp_alloc) refers to rt_memclr_w.o(.text) for __aeabi_memclr4
    tcp.o(i.tcp_alloc) refers to tcp.o(i.tcp_next_iss) for tcp_next_iss
    tcp.o(i.tcp_alloc) refers to memp.o(.constdata) for memp_sizes
    tcp.o(i.tcp_alloc) refers to tcp.o(.data) for .data
    tcp.o(i.tcp_alloc) refers to tcp.o(i.tcp_recv_null) for tcp_recv_null
    tcp.o(i.tcp_bind) refers to lpc_debug.o(i.assert_loop) for assert_loop
    tcp.o(i.tcp_bind) refers to tcp.o(i.tcp_new_port) for tcp_new_port
    tcp.o(i.tcp_bind) refers to timers.o(i.tcp_timer_needed) for tcp_timer_needed
    tcp.o(i.tcp_bind) refers to tcp.o(.constdata) for .constdata
    tcp.o(i.tcp_bind) refers to tcp.o(.data) for .data
    tcp.o(i.tcp_close) refers to tcp.o(i.tcp_close_shutdown) for tcp_close_shutdown
    tcp.o(i.tcp_close_shutdown) refers to lpc_debug.o(i.assert_loop) for assert_loop
    tcp.o(i.tcp_close_shutdown) refers to tcp_out.o(i.tcp_rst) for tcp_rst
    tcp.o(i.tcp_close_shutdown) refers to tcp.o(i.tcp_pcb_purge) for tcp_pcb_purge
    tcp.o(i.tcp_close_shutdown) refers to h1_free.o(.text) for free
    tcp.o(i.tcp_close_shutdown) refers to timers.o(i.tcp_timer_needed) for tcp_timer_needed
    tcp.o(i.tcp_close_shutdown) refers to tcp.o(i.tcp_pcb_remove) for tcp_pcb_remove
    tcp.o(i.tcp_close_shutdown) refers to tcp_out.o(i.tcp_send_fin) for tcp_send_fin
    tcp.o(i.tcp_close_shutdown) refers to tcp_out.o(i.tcp_output) for tcp_output
    tcp.o(i.tcp_close_shutdown) refers to tcp.o(.data) for .data
    tcp.o(i.tcp_connect) refers to lpc_debug.o(i.assert_loop) for assert_loop
    tcp.o(i.tcp_connect) refers to ip.o(i.ip_route) for ip_route
    tcp.o(i.tcp_connect) refers to tcp.o(i.tcp_new_port) for tcp_new_port
    tcp.o(i.tcp_connect) refers to tcp.o(i.tcp_next_iss) for tcp_next_iss
    tcp.o(i.tcp_connect) refers to tcp.o(i.tcp_eff_send_mss) for tcp_eff_send_mss
    tcp.o(i.tcp_connect) refers to tcp_out.o(i.tcp_enqueue_flags) for tcp_enqueue_flags
    tcp.o(i.tcp_connect) refers to timers.o(i.tcp_timer_needed) for tcp_timer_needed
    tcp.o(i.tcp_connect) refers to tcp_out.o(i.tcp_output) for tcp_output
    tcp.o(i.tcp_connect) refers to tcp.o(.data) for .data
    tcp.o(i.tcp_debug_state_str) refers to tcp.o(.constdata) for .constdata
    tcp.o(i.tcp_eff_send_mss) refers to ip.o(i.ip_route) for ip_route
    tcp.o(i.tcp_err) refers to lpc_debug.o(i.assert_loop) for assert_loop
    tcp.o(i.tcp_fasttmr) refers to tcp_out.o(i.tcp_output) for tcp_output
    tcp.o(i.tcp_fasttmr) refers to tcp.o(i.tcp_process_refused_data) for tcp_process_refused_data
    tcp.o(i.tcp_fasttmr) refers to tcp.o(.data) for .data
    tcp.o(i.tcp_listen_with_backlog) refers to lpc_debug.o(i.assert_loop) for assert_loop
    tcp.o(i.tcp_listen_with_backlog) refers to h1_alloc.o(.text) for malloc
    tcp.o(i.tcp_listen_with_backlog) refers to h1_free.o(.text) for free
    tcp.o(i.tcp_listen_with_backlog) refers to timers.o(i.tcp_timer_needed) for tcp_timer_needed
    tcp.o(i.tcp_listen_with_backlog) refers to memp.o(.constdata) for memp_sizes
    tcp.o(i.tcp_listen_with_backlog) refers to tcp.o(.data) for .data
    tcp.o(i.tcp_listen_with_backlog) refers to tcp.o(i.tcp_accept_null) for tcp_accept_null
    tcp.o(i.tcp_new) refers to tcp.o(i.tcp_alloc) for tcp_alloc
    tcp.o(i.tcp_new_port) refers to tcp.o(.constdata) for .constdata
    tcp.o(i.tcp_new_port) refers to tcp.o(.data) for .data
    tcp.o(i.tcp_next_iss) refers to tcp.o(.data) for .data
    tcp.o(i.tcp_pcb_purge) refers to pbuf.o(i.pbuf_free) for pbuf_free
    tcp.o(i.tcp_pcb_purge) refers to tcp.o(i.tcp_segs_free) for tcp_segs_free
    tcp.o(i.tcp_pcb_remove) refers to tcp.o(i.tcp_pcb_purge) for tcp_pcb_purge
    tcp.o(i.tcp_pcb_remove) refers to tcp_out.o(i.tcp_output) for tcp_output
    tcp.o(i.tcp_pcb_remove) refers to lpc_debug.o(i.assert_loop) for assert_loop
    tcp.o(i.tcp_pcb_remove) refers to tcp.o(.data) for .data
    tcp.o(i.tcp_poll) refers to lpc_debug.o(i.assert_loop) for assert_loop
    tcp.o(i.tcp_process_refused_data) refers to tcp.o(i.tcp_recv_null) for tcp_recv_null
    tcp.o(i.tcp_recv) refers to lpc_debug.o(i.assert_loop) for assert_loop
    tcp.o(i.tcp_recv_null) refers to tcp.o(i.tcp_recved) for tcp_recved
    tcp.o(i.tcp_recv_null) refers to pbuf.o(i.pbuf_free) for pbuf_free
    tcp.o(i.tcp_recv_null) refers to tcp.o(i.tcp_close) for tcp_close
    tcp.o(i.tcp_recved) refers to lpc_debug.o(i.assert_loop) for assert_loop
    tcp.o(i.tcp_recved) refers to tcp.o(i.tcp_update_rcv_ann_wnd) for tcp_update_rcv_ann_wnd
    tcp.o(i.tcp_recved) refers to tcp_out.o(i.tcp_output) for tcp_output
    tcp.o(i.tcp_seg_copy) refers to h1_alloc.o(.text) for malloc
    tcp.o(i.tcp_seg_copy) refers to rt_memcpy_w.o(.text) for __aeabi_memcpy4
    tcp.o(i.tcp_seg_copy) refers to pbuf.o(i.pbuf_ref) for pbuf_ref
    tcp.o(i.tcp_seg_copy) refers to memp.o(.constdata) for memp_sizes
    tcp.o(i.tcp_seg_free) refers to pbuf.o(i.pbuf_free) for pbuf_free
    tcp.o(i.tcp_seg_free) refers to h1_free.o(.text) for free
    tcp.o(i.tcp_segs_free) refers to tcp.o(i.tcp_seg_free) for tcp_seg_free
    tcp.o(i.tcp_sent) refers to lpc_debug.o(i.assert_loop) for assert_loop
    tcp.o(i.tcp_shutdown) refers to pbuf.o(i.pbuf_free) for pbuf_free
    tcp.o(i.tcp_shutdown) refers to tcp.o(i.tcp_close_shutdown) for tcp_close_shutdown
    tcp.o(i.tcp_slowtmr) refers to lpc_debug.o(i.assert_loop) for assert_loop
    tcp.o(i.tcp_slowtmr) refers to tcp_out.o(i.tcp_zero_window_probe) for tcp_zero_window_probe
    tcp.o(i.tcp_slowtmr) refers to tcp_out.o(i.tcp_rexmit_rto) for tcp_rexmit_rto
    tcp.o(i.tcp_slowtmr) refers to tcp_out.o(i.tcp_keepalive) for tcp_keepalive
    tcp.o(i.tcp_slowtmr) refers to tcp.o(i.tcp_segs_free) for tcp_segs_free
    tcp.o(i.tcp_slowtmr) refers to tcp.o(i.tcp_pcb_purge) for tcp_pcb_purge
    tcp.o(i.tcp_slowtmr) refers to tcp_out.o(i.tcp_rst) for tcp_rst
    tcp.o(i.tcp_slowtmr) refers to h1_free.o(.text) for free
    tcp.o(i.tcp_slowtmr) refers to tcp_out.o(i.tcp_output) for tcp_output
    tcp.o(i.tcp_slowtmr) refers to tcp.o(.data) for .data
    tcp.o(i.tcp_slowtmr) refers to tcp.o(.constdata) for .constdata
    tcp.o(i.tcp_tmr) refers to tcp.o(i.tcp_fasttmr) for tcp_fasttmr
    tcp.o(i.tcp_tmr) refers to tcp.o(i.tcp_slowtmr) for tcp_slowtmr
    tcp.o(i.tcp_tmr) refers to tcp.o(.data) for .data
    tcp.o(i.tcp_update_rcv_ann_wnd) refers to lpc_debug.o(i.assert_loop) for assert_loop
    tcp.o(.constdata) refers to tcp.o(.conststring) for .conststring
    tcp.o(.constdata) refers to tcp.o(.data) for tcp_listen_pcbs
    sys.o(i.sys_msleep) refers to sys_arch_freertos.o(i.sys_sem_new) for sys_sem_new
    sys.o(i.sys_msleep) refers to sys_arch_freertos.o(i.sys_arch_sem_wait) for sys_arch_sem_wait
    sys.o(i.sys_msleep) refers to sys_arch_freertos.o(i.sys_sem_free) for sys_sem_free
    pbuf.o(i.pbuf_alloc) refers to lpc_debug.o(i.assert_loop) for assert_loop
    pbuf.o(i.pbuf_alloc) refers to h1_alloc.o(.text) for malloc
    pbuf.o(i.pbuf_alloc) refers to pbuf.o(i.pbuf_pool_is_empty) for pbuf_pool_is_empty
    pbuf.o(i.pbuf_alloc) refers to pbuf.o(i.pbuf_free) for pbuf_free
    pbuf.o(i.pbuf_alloc) refers to memp.o(.constdata) for memp_sizes
    pbuf.o(i.pbuf_alloced_custom) refers to lpc_debug.o(i.assert_loop) for assert_loop
    pbuf.o(i.pbuf_cat) refers to lpc_debug.o(i.assert_loop) for assert_loop
    pbuf.o(i.pbuf_chain) refers to pbuf.o(i.pbuf_cat) for pbuf_cat
    pbuf.o(i.pbuf_chain) refers to pbuf.o(i.pbuf_ref) for pbuf_ref
    pbuf.o(i.pbuf_coalesce) refers to pbuf.o(i.pbuf_alloc) for pbuf_alloc
    pbuf.o(i.pbuf_coalesce) refers to pbuf.o(i.pbuf_copy) for pbuf_copy
    pbuf.o(i.pbuf_coalesce) refers to lpc_debug.o(i.assert_loop) for assert_loop
    pbuf.o(i.pbuf_coalesce) refers to pbuf.o(i.pbuf_free) for pbuf_free
    pbuf.o(i.pbuf_copy) refers to rt_memcpy_v6.o(.text) for __aeabi_memcpy
    pbuf.o(i.pbuf_copy) refers to lpc_debug.o(i.assert_loop) for assert_loop
    pbuf.o(i.pbuf_copy_partial) refers to lpc_debug.o(i.assert_loop) for assert_loop
    pbuf.o(i.pbuf_copy_partial) refers to rt_memcpy_v6.o(.text) for __aeabi_memcpy
    pbuf.o(i.pbuf_dechain) refers to lpc_debug.o(i.assert_loop) for assert_loop
    pbuf.o(i.pbuf_dechain) refers to pbuf.o(i.pbuf_free) for pbuf_free
    pbuf.o(i.pbuf_fill_chksum) refers to lpc_debug.o(i.assert_loop) for assert_loop
    pbuf.o(i.pbuf_fill_chksum) refers to inet_chksum.o(i.lwip_chksum_copy) for lwip_chksum_copy
    pbuf.o(i.pbuf_free) refers to lpc_debug.o(i.assert_loop) for assert_loop
    pbuf.o(i.pbuf_free) refers to sys_arch_freertos.o(i.sys_arch_protect) for sys_arch_protect
    pbuf.o(i.pbuf_free) refers to sys_arch_freertos.o(i.sys_arch_unprotect) for sys_arch_unprotect
    pbuf.o(i.pbuf_free) refers to h1_free.o(.text) for free
    pbuf.o(i.pbuf_free_ooseq_callback) refers to sys_arch_freertos.o(i.sys_arch_protect) for sys_arch_protect
    pbuf.o(i.pbuf_free_ooseq_callback) refers to sys_arch_freertos.o(i.sys_arch_unprotect) for sys_arch_unprotect
    pbuf.o(i.pbuf_free_ooseq_callback) refers to tcp.o(i.tcp_segs_free) for tcp_segs_free
    pbuf.o(i.pbuf_free_ooseq_callback) refers to pbuf.o(.data) for .data
    pbuf.o(i.pbuf_free_ooseq_callback) refers to tcp.o(.data) for tcp_active_pcbs
    pbuf.o(i.pbuf_header) refers to lpc_debug.o(i.assert_loop) for assert_loop
    pbuf.o(i.pbuf_memcmp) refers to pbuf.o(i.pbuf_get_at) for pbuf_get_at
    pbuf.o(i.pbuf_memfind) refers to pbuf.o(i.pbuf_memcmp) for pbuf_memcmp
    pbuf.o(i.pbuf_pool_is_empty) refers to sys_arch_freertos.o(i.sys_arch_protect) for sys_arch_protect
    pbuf.o(i.pbuf_pool_is_empty) refers to sys_arch_freertos.o(i.sys_arch_unprotect) for sys_arch_unprotect
    pbuf.o(i.pbuf_pool_is_empty) refers to tcpip.o(i.tcpip_callback_with_block) for tcpip_callback_with_block
    pbuf.o(i.pbuf_pool_is_empty) refers to pbuf.o(.data) for .data
    pbuf.o(i.pbuf_pool_is_empty) refers to pbuf.o(i.pbuf_free_ooseq_callback) for pbuf_free_ooseq_callback
    pbuf.o(i.pbuf_realloc) refers to lpc_debug.o(i.assert_loop) for assert_loop
    pbuf.o(i.pbuf_realloc) refers to pbuf.o(i.pbuf_free) for pbuf_free
    pbuf.o(i.pbuf_ref) refers to sys_arch_freertos.o(i.sys_arch_protect) for sys_arch_protect
    pbuf.o(i.pbuf_ref) refers to sys_arch_freertos.o(i.sys_arch_unprotect) for sys_arch_unprotect
    pbuf.o(i.pbuf_strstr) refers to strlen.o(.text) for strlen
    pbuf.o(i.pbuf_strstr) refers to pbuf.o(i.pbuf_memfind) for pbuf_memfind
    pbuf.o(i.pbuf_take) refers to lpc_debug.o(i.assert_loop) for assert_loop
    pbuf.o(i.pbuf_take) refers to rt_memcpy_v6.o(.text) for __aeabi_memcpy
    netif.o(i.netif_add) refers to lpc_debug.o(i.assert_loop) for assert_loop
    netif.o(i.netif_add) refers to netif.o(i.netif_set_addr) for netif_set_addr
    netif.o(i.netif_add) refers to netif.o(.data) for .data
    netif.o(i.netif_find) refers to netif.o(.data) for .data
    netif.o(i.netif_remove) refers to netif.o(i.netif_set_down) for netif_set_down
    netif.o(i.netif_remove) refers to netif.o(.data) for .data
    netif.o(i.netif_set_addr) refers to netif.o(i.netif_set_ipaddr) for netif_set_ipaddr
    netif.o(i.netif_set_addr) refers to netif.o(i.netif_set_netmask) for netif_set_netmask
    netif.o(i.netif_set_addr) refers to netif.o(i.netif_set_gw) for netif_set_gw
    netif.o(i.netif_set_default) refers to netif.o(.data) for .data
    netif.o(i.netif_set_down) refers to etharp.o(i.etharp_cleanup_netif) for etharp_cleanup_netif
    netif.o(i.netif_set_ipaddr) refers to tcp.o(i.tcp_abort) for tcp_abort
    netif.o(i.netif_set_ipaddr) refers to tcp.o(.data) for tcp_active_pcbs
    netif.o(i.netif_set_link_up) refers to dhcp.o(i.dhcp_network_changed) for dhcp_network_changed
    netif.o(i.netif_set_link_up) refers to etharp.o(i.etharp_request) for etharp_request
    netif.o(i.netif_set_up) refers to etharp.o(i.etharp_request) for etharp_request
    init.o(i.lwip_init) refers to sys_arch_freertos.o(i.sys_init) for sys_init
    init.o(i.lwip_init) refers to netif.o(i.netif_init) for netif_init
    init.o(i.lwip_init) refers to udp.o(i.udp_init) for udp_init
    init.o(i.lwip_init) refers to tcp.o(i.tcp_init) for tcp_init
    init.o(i.lwip_init) refers to timers.o(i.sys_timeouts_init) for sys_timeouts_init
    dhcp.o(i.dhcp_arp_reply) refers to dhcp.o(i.dhcp_decline) for dhcp_decline
    dhcp.o(i.dhcp_arp_reply) refers to lpc_debug.o(i.assert_loop) for assert_loop
    dhcp.o(i.dhcp_bind) refers to lpc_debug.o(i.assert_loop) for assert_loop
    dhcp.o(i.dhcp_bind) refers to netif.o(i.netif_set_ipaddr) for netif_set_ipaddr
    dhcp.o(i.dhcp_bind) refers to netif.o(i.netif_set_netmask) for netif_set_netmask
    dhcp.o(i.dhcp_bind) refers to netif.o(i.netif_set_gw) for netif_set_gw
    dhcp.o(i.dhcp_bind) refers to netif.o(i.netif_set_up) for netif_set_up
    dhcp.o(i.dhcp_bind) refers to dhcp.o(i.dhcp_set_state) for dhcp_set_state
    dhcp.o(i.dhcp_check) refers to dhcp.o(i.dhcp_set_state) for dhcp_set_state
    dhcp.o(i.dhcp_check) refers to etharp.o(i.etharp_query) for etharp_query
    dhcp.o(i.dhcp_cleanup) refers to lpc_debug.o(i.assert_loop) for assert_loop
    dhcp.o(i.dhcp_cleanup) refers to h1_free.o(.text) for free
    dhcp.o(i.dhcp_coarse_tmr) refers to dhcp.o(i.dhcp_rebind) for dhcp_rebind
    dhcp.o(i.dhcp_coarse_tmr) refers to dhcp.o(i.dhcp_renew) for dhcp_renew
    dhcp.o(i.dhcp_coarse_tmr) refers to netif.o(.data) for netif_list
    dhcp.o(i.dhcp_create_msg) refers to lpc_debug.o(i.assert_loop) for assert_loop
    dhcp.o(i.dhcp_create_msg) refers to pbuf.o(i.pbuf_alloc) for pbuf_alloc
    dhcp.o(i.dhcp_create_msg) refers to def.o(i.lwip_htonl) for lwip_htonl
    dhcp.o(i.dhcp_create_msg) refers to dhcp.o(i.dhcp_option) for dhcp_option
    dhcp.o(i.dhcp_create_msg) refers to dhcp.o(i.dhcp_option_byte) for dhcp_option_byte
    dhcp.o(i.dhcp_create_msg) refers to dhcp.o(.data) for .data
    dhcp.o(i.dhcp_decline) refers to dhcp.o(i.dhcp_set_state) for dhcp_set_state
    dhcp.o(i.dhcp_decline) refers to dhcp.o(i.dhcp_create_msg) for dhcp_create_msg
    dhcp.o(i.dhcp_decline) refers to dhcp.o(i.dhcp_option) for dhcp_option
    dhcp.o(i.dhcp_decline) refers to def.o(i.lwip_ntohl) for lwip_ntohl
    dhcp.o(i.dhcp_decline) refers to dhcp.o(i.dhcp_option_long) for dhcp_option_long
    dhcp.o(i.dhcp_decline) refers to dhcp.o(i.dhcp_option_trailer) for dhcp_option_trailer
    dhcp.o(i.dhcp_decline) refers to pbuf.o(i.pbuf_realloc) for pbuf_realloc
    dhcp.o(i.dhcp_decline) refers to udp.o(i.udp_sendto_if) for udp_sendto_if
    dhcp.o(i.dhcp_decline) refers to dhcp.o(i.dhcp_delete_msg) for dhcp_delete_msg
    dhcp.o(i.dhcp_decline) refers to ip_addr.o(.constdata) for ip_addr_broadcast
    dhcp.o(i.dhcp_delete_msg) refers to lpc_debug.o(i.assert_loop) for assert_loop
    dhcp.o(i.dhcp_delete_msg) refers to pbuf.o(i.pbuf_free) for pbuf_free
    dhcp.o(i.dhcp_discover) refers to dhcp.o(i.dhcp_set_state) for dhcp_set_state
    dhcp.o(i.dhcp_discover) refers to dhcp.o(i.dhcp_create_msg) for dhcp_create_msg
    dhcp.o(i.dhcp_discover) refers to dhcp.o(i.dhcp_option) for dhcp_option
    dhcp.o(i.dhcp_discover) refers to dhcp.o(i.dhcp_option_short) for dhcp_option_short
    dhcp.o(i.dhcp_discover) refers to dhcp.o(i.dhcp_option_byte) for dhcp_option_byte
    dhcp.o(i.dhcp_discover) refers to dhcp.o(i.dhcp_option_trailer) for dhcp_option_trailer
    dhcp.o(i.dhcp_discover) refers to pbuf.o(i.pbuf_realloc) for pbuf_realloc
    dhcp.o(i.dhcp_discover) refers to udp.o(i.udp_sendto_if) for udp_sendto_if
    dhcp.o(i.dhcp_discover) refers to dhcp.o(i.dhcp_delete_msg) for dhcp_delete_msg
    dhcp.o(i.dhcp_discover) refers to ip_addr.o(.constdata) for ip_addr_broadcast
    dhcp.o(i.dhcp_fine_tmr) refers to dhcp.o(i.dhcp_timeout) for dhcp_timeout
    dhcp.o(i.dhcp_fine_tmr) refers to netif.o(.data) for netif_list
    dhcp.o(i.dhcp_handle_ack) refers to def.o(i.lwip_htonl) for lwip_htonl
    dhcp.o(i.dhcp_handle_ack) refers to dhcp.o(.bss) for .bss
    dhcp.o(i.dhcp_inform) refers to rt_memclr_w.o(.text) for __aeabi_memclr4
    dhcp.o(i.dhcp_inform) refers to dhcp.o(i.dhcp_set_state) for dhcp_set_state
    dhcp.o(i.dhcp_inform) refers to lpc_debug.o(i.assert_loop) for assert_loop
    dhcp.o(i.dhcp_inform) refers to udp.o(i.udp_new) for udp_new
    dhcp.o(i.dhcp_inform) refers to udp.o(i.udp_bind) for udp_bind
    dhcp.o(i.dhcp_inform) refers to dhcp.o(i.dhcp_create_msg) for dhcp_create_msg
    dhcp.o(i.dhcp_inform) refers to dhcp.o(i.dhcp_option) for dhcp_option
    dhcp.o(i.dhcp_inform) refers to dhcp.o(i.dhcp_option_short) for dhcp_option_short
    dhcp.o(i.dhcp_inform) refers to dhcp.o(i.dhcp_option_trailer) for dhcp_option_trailer
    dhcp.o(i.dhcp_inform) refers to pbuf.o(i.pbuf_realloc) for pbuf_realloc
    dhcp.o(i.dhcp_inform) refers to udp.o(i.udp_sendto_if) for udp_sendto_if
    dhcp.o(i.dhcp_inform) refers to dhcp.o(i.dhcp_delete_msg) for dhcp_delete_msg
    dhcp.o(i.dhcp_inform) refers to udp.o(i.udp_remove) for udp_remove
    dhcp.o(i.dhcp_inform) refers to ip_addr.o(.constdata) for ip_addr_any
    dhcp.o(i.dhcp_inform) refers to ip_addr.o(.constdata) for ip_addr_broadcast
    dhcp.o(i.dhcp_network_changed) refers to dhcp.o(i.dhcp_discover) for dhcp_discover
    dhcp.o(i.dhcp_network_changed) refers to netif.o(i.netif_set_down) for netif_set_down
    dhcp.o(i.dhcp_network_changed) refers to dhcp.o(i.dhcp_reboot) for dhcp_reboot
    dhcp.o(i.dhcp_option) refers to lpc_debug.o(i.assert_loop) for assert_loop
    dhcp.o(i.dhcp_option_byte) refers to lpc_debug.o(i.assert_loop) for assert_loop
    dhcp.o(i.dhcp_option_hostname) refers to strlen.o(.text) for strlen
    dhcp.o(i.dhcp_option_hostname) refers to lpc_debug.o(i.assert_loop) for assert_loop
    dhcp.o(i.dhcp_option_hostname) refers to dhcp.o(i.dhcp_option) for dhcp_option
    dhcp.o(i.dhcp_option_hostname) refers to dhcp.o(i.dhcp_option_byte) for dhcp_option_byte
    dhcp.o(i.dhcp_option_long) refers to lpc_debug.o(i.assert_loop) for assert_loop
    dhcp.o(i.dhcp_option_short) refers to lpc_debug.o(i.assert_loop) for assert_loop
    dhcp.o(i.dhcp_option_trailer) refers to lpc_debug.o(i.assert_loop) for assert_loop
    dhcp.o(i.dhcp_parse_reply) refers to rt_memclr_w.o(.text) for __aeabi_memclr4
    dhcp.o(i.dhcp_parse_reply) refers to lpc_debug.o(i.assert_loop) for assert_loop
    dhcp.o(i.dhcp_parse_reply) refers to pbuf.o(i.pbuf_copy_partial) for pbuf_copy_partial
    dhcp.o(i.dhcp_parse_reply) refers to def.o(i.lwip_htonl) for lwip_htonl
    dhcp.o(i.dhcp_parse_reply) refers to def.o(i.lwip_ntohl) for lwip_ntohl
    dhcp.o(i.dhcp_parse_reply) refers to dhcp.o(.bss) for .bss
    dhcp.o(i.dhcp_rebind) refers to dhcp.o(i.dhcp_set_state) for dhcp_set_state
    dhcp.o(i.dhcp_rebind) refers to dhcp.o(i.dhcp_create_msg) for dhcp_create_msg
    dhcp.o(i.dhcp_rebind) refers to dhcp.o(i.dhcp_option) for dhcp_option
    dhcp.o(i.dhcp_rebind) refers to dhcp.o(i.dhcp_option_short) for dhcp_option_short
    dhcp.o(i.dhcp_rebind) refers to dhcp.o(i.dhcp_option_hostname) for dhcp_option_hostname
    dhcp.o(i.dhcp_rebind) refers to dhcp.o(i.dhcp_option_trailer) for dhcp_option_trailer
    dhcp.o(i.dhcp_rebind) refers to pbuf.o(i.pbuf_realloc) for pbuf_realloc
    dhcp.o(i.dhcp_rebind) refers to udp.o(i.udp_sendto_if) for udp_sendto_if
    dhcp.o(i.dhcp_rebind) refers to dhcp.o(i.dhcp_delete_msg) for dhcp_delete_msg
    dhcp.o(i.dhcp_rebind) refers to ip_addr.o(.constdata) for ip_addr_broadcast
    dhcp.o(i.dhcp_reboot) refers to dhcp.o(i.dhcp_set_state) for dhcp_set_state
    dhcp.o(i.dhcp_reboot) refers to dhcp.o(i.dhcp_create_msg) for dhcp_create_msg
    dhcp.o(i.dhcp_reboot) refers to dhcp.o(i.dhcp_option) for dhcp_option
    dhcp.o(i.dhcp_reboot) refers to dhcp.o(i.dhcp_option_short) for dhcp_option_short
    dhcp.o(i.dhcp_reboot) refers to def.o(i.lwip_ntohl) for lwip_ntohl
    dhcp.o(i.dhcp_reboot) refers to dhcp.o(i.dhcp_option_long) for dhcp_option_long
    dhcp.o(i.dhcp_reboot) refers to dhcp.o(i.dhcp_option_trailer) for dhcp_option_trailer
    dhcp.o(i.dhcp_reboot) refers to pbuf.o(i.pbuf_realloc) for pbuf_realloc
    dhcp.o(i.dhcp_reboot) refers to udp.o(i.udp_sendto_if) for udp_sendto_if
    dhcp.o(i.dhcp_reboot) refers to dhcp.o(i.dhcp_delete_msg) for dhcp_delete_msg
    dhcp.o(i.dhcp_reboot) refers to ip_addr.o(.constdata) for ip_addr_broadcast
    dhcp.o(i.dhcp_recv) refers to lpc_debug.o(i.assert_loop) for assert_loop
    dhcp.o(i.dhcp_recv) refers to def.o(i.lwip_ntohl) for lwip_ntohl
    dhcp.o(i.dhcp_recv) refers to dhcp.o(i.dhcp_parse_reply) for dhcp_parse_reply
    dhcp.o(i.dhcp_recv) refers to dhcp.o(i.dhcp_handle_ack) for dhcp_handle_ack
    dhcp.o(i.dhcp_recv) refers to dhcp.o(i.dhcp_check) for dhcp_check
    dhcp.o(i.dhcp_recv) refers to dhcp.o(i.dhcp_bind) for dhcp_bind
    dhcp.o(i.dhcp_recv) refers to netif.o(i.netif_set_down) for netif_set_down
    dhcp.o(i.dhcp_recv) refers to netif.o(i.netif_set_ipaddr) for netif_set_ipaddr
    dhcp.o(i.dhcp_recv) refers to netif.o(i.netif_set_gw) for netif_set_gw
    dhcp.o(i.dhcp_recv) refers to netif.o(i.netif_set_netmask) for netif_set_netmask
    dhcp.o(i.dhcp_recv) refers to dhcp.o(i.dhcp_set_state) for dhcp_set_state
    dhcp.o(i.dhcp_recv) refers to dhcp.o(i.dhcp_discover) for dhcp_discover
    dhcp.o(i.dhcp_recv) refers to def.o(i.lwip_htonl) for lwip_htonl
    dhcp.o(i.dhcp_recv) refers to dhcp.o(i.dhcp_select) for dhcp_select
    dhcp.o(i.dhcp_recv) refers to pbuf.o(i.pbuf_free) for pbuf_free
    dhcp.o(i.dhcp_recv) refers to dhcp.o(.bss) for .bss
    dhcp.o(i.dhcp_recv) refers to ip_addr.o(.constdata) for ip_addr_any
    dhcp.o(i.dhcp_release) refers to dhcp.o(i.dhcp_set_state) for dhcp_set_state
    dhcp.o(i.dhcp_release) refers to dhcp.o(i.dhcp_create_msg) for dhcp_create_msg
    dhcp.o(i.dhcp_release) refers to dhcp.o(i.dhcp_option_trailer) for dhcp_option_trailer
    dhcp.o(i.dhcp_release) refers to pbuf.o(i.pbuf_realloc) for pbuf_realloc
    dhcp.o(i.dhcp_release) refers to udp.o(i.udp_sendto_if) for udp_sendto_if
    dhcp.o(i.dhcp_release) refers to dhcp.o(i.dhcp_delete_msg) for dhcp_delete_msg
    dhcp.o(i.dhcp_release) refers to netif.o(i.netif_set_down) for netif_set_down
    dhcp.o(i.dhcp_release) refers to netif.o(i.netif_set_ipaddr) for netif_set_ipaddr
    dhcp.o(i.dhcp_release) refers to netif.o(i.netif_set_gw) for netif_set_gw
    dhcp.o(i.dhcp_release) refers to netif.o(i.netif_set_netmask) for netif_set_netmask
    dhcp.o(i.dhcp_release) refers to ip_addr.o(.constdata) for ip_addr_any
    dhcp.o(i.dhcp_renew) refers to dhcp.o(i.dhcp_set_state) for dhcp_set_state
    dhcp.o(i.dhcp_renew) refers to dhcp.o(i.dhcp_create_msg) for dhcp_create_msg
    dhcp.o(i.dhcp_renew) refers to dhcp.o(i.dhcp_option) for dhcp_option
    dhcp.o(i.dhcp_renew) refers to dhcp.o(i.dhcp_option_short) for dhcp_option_short
    dhcp.o(i.dhcp_renew) refers to dhcp.o(i.dhcp_option_hostname) for dhcp_option_hostname
    dhcp.o(i.dhcp_renew) refers to dhcp.o(i.dhcp_option_trailer) for dhcp_option_trailer
    dhcp.o(i.dhcp_renew) refers to pbuf.o(i.pbuf_realloc) for pbuf_realloc
    dhcp.o(i.dhcp_renew) refers to udp.o(i.udp_sendto_if) for udp_sendto_if
    dhcp.o(i.dhcp_renew) refers to dhcp.o(i.dhcp_delete_msg) for dhcp_delete_msg
    dhcp.o(i.dhcp_select) refers to dhcp.o(i.dhcp_set_state) for dhcp_set_state
    dhcp.o(i.dhcp_select) refers to dhcp.o(i.dhcp_create_msg) for dhcp_create_msg
    dhcp.o(i.dhcp_select) refers to dhcp.o(i.dhcp_option) for dhcp_option
    dhcp.o(i.dhcp_select) refers to dhcp.o(i.dhcp_option_short) for dhcp_option_short
    dhcp.o(i.dhcp_select) refers to def.o(i.lwip_ntohl) for lwip_ntohl
    dhcp.o(i.dhcp_select) refers to dhcp.o(i.dhcp_option_long) for dhcp_option_long
    dhcp.o(i.dhcp_select) refers to dhcp.o(i.dhcp_option_byte) for dhcp_option_byte
    dhcp.o(i.dhcp_select) refers to dhcp.o(i.dhcp_option_hostname) for dhcp_option_hostname
    dhcp.o(i.dhcp_select) refers to dhcp.o(i.dhcp_option_trailer) for dhcp_option_trailer
    dhcp.o(i.dhcp_select) refers to pbuf.o(i.pbuf_realloc) for pbuf_realloc
    dhcp.o(i.dhcp_select) refers to udp.o(i.udp_sendto_if) for udp_sendto_if
    dhcp.o(i.dhcp_select) refers to dhcp.o(i.dhcp_delete_msg) for dhcp_delete_msg
    dhcp.o(i.dhcp_select) refers to ip_addr.o(.constdata) for ip_addr_broadcast
    dhcp.o(i.dhcp_set_struct) refers to lpc_debug.o(i.assert_loop) for assert_loop
    dhcp.o(i.dhcp_set_struct) refers to rt_memclr_w.o(.text) for __aeabi_memclr4
    dhcp.o(i.dhcp_start) refers to udp.o(i.udp_remove) for udp_remove
    dhcp.o(i.dhcp_start) refers to lpc_debug.o(i.assert_loop) for assert_loop
    dhcp.o(i.dhcp_start) refers to rt_memclr_w.o(.text) for __aeabi_memclr4
    dhcp.o(i.dhcp_start) refers to udp.o(i.udp_new) for udp_new
    dhcp.o(i.dhcp_start) refers to udp.o(i.udp_bind) for udp_bind
    dhcp.o(i.dhcp_start) refers to udp.o(i.udp_connect) for udp_connect
    dhcp.o(i.dhcp_start) refers to udp.o(i.udp_recv) for udp_recv
    dhcp.o(i.dhcp_start) refers to dhcp.o(i.dhcp_discover) for dhcp_discover
    dhcp.o(i.dhcp_start) refers to dhcp.o(i.dhcp_stop) for dhcp_stop
    dhcp.o(i.dhcp_start) refers to h1_alloc.o(.text) for malloc
    dhcp.o(i.dhcp_start) refers to ip_addr.o(.constdata) for ip_addr_any
    dhcp.o(i.dhcp_start) refers to dhcp.o(i.dhcp_recv) for dhcp_recv
    dhcp.o(i.dhcp_stop) refers to udp.o(i.udp_remove) for udp_remove
    dhcp.o(i.dhcp_stop) refers to lpc_debug.o(i.assert_loop) for assert_loop
    dhcp.o(i.dhcp_stop) refers to dhcp.o(i.dhcp_set_state) for dhcp_set_state
    dhcp.o(i.dhcp_timeout) refers to dhcp.o(i.dhcp_reboot) for dhcp_reboot
    dhcp.o(i.dhcp_timeout) refers to dhcp.o(i.dhcp_discover) for dhcp_discover
    dhcp.o(i.dhcp_timeout) refers to dhcp.o(i.dhcp_select) for dhcp_select
    dhcp.o(i.dhcp_timeout) refers to dhcp.o(i.dhcp_release) for dhcp_release
    dhcp.o(i.dhcp_timeout) refers to dhcp.o(i.dhcp_check) for dhcp_check
    dhcp.o(i.dhcp_timeout) refers to dhcp.o(i.dhcp_bind) for dhcp_bind
    dhcp.o(i.dhcp_timeout) refers to dhcp.o(i.dhcp_renew) for dhcp_renew
    dhcp.o(i.dhcp_timeout) refers to dhcp.o(i.dhcp_rebind) for dhcp_rebind
    ip_frag.o(i.ip_frag) refers to def.o(i.lwip_ntohs) for lwip_ntohs
    ip_frag.o(i.ip_frag) refers to pbuf.o(i.pbuf_alloc) for pbuf_alloc
    ip_frag.o(i.ip_frag) refers to lpc_debug.o(i.assert_loop) for assert_loop
    ip_frag.o(i.ip_frag) refers to rt_memcpy_v6.o(.text) for __aeabi_memcpy
    ip_frag.o(i.ip_frag) refers to h1_alloc.o(.text) for malloc
    ip_frag.o(i.ip_frag) refers to pbuf.o(i.pbuf_alloced_custom) for pbuf_alloced_custom
    ip_frag.o(i.ip_frag) refers to pbuf.o(i.pbuf_ref) for pbuf_ref
    ip_frag.o(i.ip_frag) refers to pbuf.o(i.pbuf_cat) for pbuf_cat
    ip_frag.o(i.ip_frag) refers to def.o(i.lwip_htons) for lwip_htons
    ip_frag.o(i.ip_frag) refers to inet_chksum.o(i.inet_chksum) for inet_chksum
    ip_frag.o(i.ip_frag) refers to pbuf.o(i.pbuf_free) for pbuf_free
    ip_frag.o(i.ip_frag) refers to ip_frag.o(i.ip_frag_free_pbuf_custom_ref) for ip_frag_free_pbuf_custom_ref
    ip_frag.o(i.ip_frag) refers to memp.o(.constdata) for memp_sizes
    ip_frag.o(i.ip_frag) refers to ip_frag.o(i.ipfrag_free_pbuf_custom) for ipfrag_free_pbuf_custom
    ip_frag.o(i.ip_frag_free_pbuf_custom_ref) refers to lpc_debug.o(i.assert_loop) for assert_loop
    ip_frag.o(i.ip_frag_free_pbuf_custom_ref) refers to h1_free.o(.text) for free
    ip_frag.o(i.ip_reass) refers to def.o(i.lwip_ntohs) for lwip_ntohs
    ip_frag.o(i.ip_reass) refers to pbuf.o(i.pbuf_clen) for pbuf_clen
    ip_frag.o(i.ip_reass) refers to ip_frag.o(i.ip_reass_remove_oldest_datagram) for ip_reass_remove_oldest_datagram
    ip_frag.o(i.ip_reass) refers to h1_alloc.o(.text) for malloc
    ip_frag.o(i.ip_reass) refers to rt_memclr_w.o(.text) for __aeabi_memclr4
    ip_frag.o(i.ip_reass) refers to rt_memcpy_v6.o(.text) for __aeabi_memcpy
    ip_frag.o(i.ip_reass) refers to ip_frag.o(i.ip_reass_chain_frag_into_datagram_and_validate) for ip_reass_chain_frag_into_datagram_and_validate
    ip_frag.o(i.ip_reass) refers to def.o(i.lwip_htons) for lwip_htons
    ip_frag.o(i.ip_reass) refers to inet_chksum.o(i.inet_chksum) for inet_chksum
    ip_frag.o(i.ip_reass) refers to pbuf.o(i.pbuf_header) for pbuf_header
    ip_frag.o(i.ip_reass) refers to pbuf.o(i.pbuf_cat) for pbuf_cat
    ip_frag.o(i.ip_reass) refers to ip_frag.o(i.ip_reass_dequeue_datagram) for ip_reass_dequeue_datagram
    ip_frag.o(i.ip_reass) refers to pbuf.o(i.pbuf_free) for pbuf_free
    ip_frag.o(i.ip_reass) refers to ip_frag.o(.data) for .data
    ip_frag.o(i.ip_reass) refers to memp.o(.constdata) for memp_sizes
    ip_frag.o(i.ip_reass_chain_frag_into_datagram_and_validate) refers to def.o(i.lwip_ntohs) for lwip_ntohs
    ip_frag.o(i.ip_reass_chain_frag_into_datagram_and_validate) refers to lpc_debug.o(i.assert_loop) for assert_loop
    ip_frag.o(i.ip_reass_chain_frag_into_datagram_and_validate) refers to pbuf.o(i.pbuf_clen) for pbuf_clen
    ip_frag.o(i.ip_reass_chain_frag_into_datagram_and_validate) refers to pbuf.o(i.pbuf_free) for pbuf_free
    ip_frag.o(i.ip_reass_chain_frag_into_datagram_and_validate) refers to ip_frag.o(.data) for .data
    ip_frag.o(i.ip_reass_dequeue_datagram) refers to lpc_debug.o(i.assert_loop) for assert_loop
    ip_frag.o(i.ip_reass_dequeue_datagram) refers to h1_free.o(.text) for free
    ip_frag.o(i.ip_reass_dequeue_datagram) refers to ip_frag.o(.data) for .data
    ip_frag.o(i.ip_reass_free_complete_datagram) refers to lpc_debug.o(i.assert_loop) for assert_loop
    ip_frag.o(i.ip_reass_free_complete_datagram) refers to rt_memcpy_v6.o(.text) for __aeabi_memcpy
    ip_frag.o(i.ip_reass_free_complete_datagram) refers to icmp.o(i.icmp_time_exceeded) for icmp_time_exceeded
    ip_frag.o(i.ip_reass_free_complete_datagram) refers to pbuf.o(i.pbuf_clen) for pbuf_clen
    ip_frag.o(i.ip_reass_free_complete_datagram) refers to pbuf.o(i.pbuf_free) for pbuf_free
    ip_frag.o(i.ip_reass_free_complete_datagram) refers to ip_frag.o(i.ip_reass_dequeue_datagram) for ip_reass_dequeue_datagram
    ip_frag.o(i.ip_reass_free_complete_datagram) refers to ip_frag.o(.data) for .data
    ip_frag.o(i.ip_reass_remove_oldest_datagram) refers to ip_frag.o(i.ip_reass_free_complete_datagram) for ip_reass_free_complete_datagram
    ip_frag.o(i.ip_reass_remove_oldest_datagram) refers to ip_frag.o(.data) for .data
    ip_frag.o(i.ip_reass_tmr) refers to ip_frag.o(i.ip_reass_free_complete_datagram) for ip_reass_free_complete_datagram
    ip_frag.o(i.ip_reass_tmr) refers to ip_frag.o(.data) for .data
    ip_frag.o(i.ipfrag_free_pbuf_custom) refers to lpc_debug.o(i.assert_loop) for assert_loop
    ip_frag.o(i.ipfrag_free_pbuf_custom) refers to pbuf.o(i.pbuf_free) for pbuf_free
    ip_frag.o(i.ipfrag_free_pbuf_custom) refers to ip_frag.o(i.ip_frag_free_pbuf_custom_ref) for ip_frag_free_pbuf_custom_ref
    ip_addr.o(i.ip4_addr_netmask_valid) refers to def.o(i.lwip_htonl) for lwip_htonl
    ip_addr.o(i.ipaddr_addr) refers to ip_addr.o(i.ipaddr_aton) for ipaddr_aton
    ip_addr.o(i.ipaddr_aton) refers to lpc_debug.o(i.assert_loop) for assert_loop
    ip_addr.o(i.ipaddr_aton) refers to def.o(i.lwip_htonl) for lwip_htonl
    ip_addr.o(i.ipaddr_ntoa) refers to ip_addr.o(i.ipaddr_ntoa_r) for ipaddr_ntoa_r
    ip_addr.o(i.ipaddr_ntoa) refers to ip_addr.o(.bss) for .bss
    ip.o(i.ip_input) refers to def.o(i.lwip_ntohs) for lwip_ntohs
    ip.o(i.ip_input) refers to inet_chksum.o(i.inet_chksum) for inet_chksum
    ip.o(i.ip_input) refers to pbuf.o(i.pbuf_free) for pbuf_free
    ip.o(i.ip_input) refers to pbuf.o(i.pbuf_realloc) for pbuf_realloc
    ip.o(i.ip_input) refers to ip_addr.o(i.ip4_addr_isbroadcast) for ip4_addr_isbroadcast
    ip.o(i.ip_input) refers to ip_frag.o(i.ip_reass) for ip_reass
    ip.o(i.ip_input) refers to udp.o(i.udp_input) for udp_input
    ip.o(i.ip_input) refers to tcp_in.o(i.tcp_input) for tcp_input
    ip.o(i.ip_input) refers to icmp.o(i.icmp_input) for icmp_input
    ip.o(i.ip_input) refers to icmp.o(i.icmp_dest_unreach) for icmp_dest_unreach
    ip.o(i.ip_input) refers to ip.o(.data) for .data
    ip.o(i.ip_input) refers to netif.o(.data) for netif_list
    ip.o(i.ip_output) refers to lpc_debug.o(i.assert_loop) for assert_loop
    ip.o(i.ip_output) refers to ip.o(i.ip_route) for ip_route
    ip.o(i.ip_output) refers to ip.o(i.ip_output_if) for ip_output_if
    ip.o(i.ip_output_if) refers to lpc_debug.o(i.assert_loop) for assert_loop
    ip.o(i.ip_output_if) refers to pbuf.o(i.pbuf_header) for pbuf_header
    ip.o(i.ip_output_if) refers to def.o(i.lwip_htons) for lwip_htons
    ip.o(i.ip_output_if) refers to ip_frag.o(i.ip_frag) for ip_frag
    ip.o(i.ip_output_if) refers to ip.o(.data) for .data
    ip.o(i.ip_route) refers to netif.o(.data) for netif_list
    inet_chksum.o(i.inet_chksum) refers to inet_chksum.o(i.lwip_standard_chksum) for lwip_standard_chksum
    inet_chksum.o(i.inet_chksum_pbuf) refers to inet_chksum.o(i.lwip_standard_chksum) for lwip_standard_chksum
    inet_chksum.o(i.inet_chksum_pseudo) refers to inet_chksum.o(i.lwip_standard_chksum) for lwip_standard_chksum
    inet_chksum.o(i.inet_chksum_pseudo) refers to def.o(i.lwip_htons) for lwip_htons
    inet_chksum.o(i.inet_chksum_pseudo_partial) refers to inet_chksum.o(i.lwip_standard_chksum) for lwip_standard_chksum
    inet_chksum.o(i.inet_chksum_pseudo_partial) refers to lpc_debug.o(i.assert_loop) for assert_loop
    inet_chksum.o(i.inet_chksum_pseudo_partial) refers to def.o(i.lwip_htons) for lwip_htons
    inet_chksum.o(i.lwip_chksum_copy) refers to rt_memcpy_v6.o(.text) for __aeabi_memcpy
    inet_chksum.o(i.lwip_chksum_copy) refers to inet_chksum.o(i.lwip_standard_chksum) for lwip_standard_chksum
    inet_chksum.o(i.lwip_standard_chksum) refers to def.o(i.lwip_htons) for lwip_htons
    icmp.o(i.icmp_dest_unreach) refers to icmp.o(i.icmp_send_response) for icmp_send_response
    icmp.o(i.icmp_input) refers to pbuf.o(i.pbuf_header) for pbuf_header
    icmp.o(i.icmp_input) refers to inet_chksum.o(i.inet_chksum_pbuf) for inet_chksum_pbuf
    icmp.o(i.icmp_input) refers to pbuf.o(i.pbuf_alloc) for pbuf_alloc
    icmp.o(i.icmp_input) refers to lpc_debug.o(i.assert_loop) for assert_loop
    icmp.o(i.icmp_input) refers to pbuf.o(i.pbuf_copy) for pbuf_copy
    icmp.o(i.icmp_input) refers to pbuf.o(i.pbuf_free) for pbuf_free
    icmp.o(i.icmp_input) refers to inet_chksum.o(i.inet_chksum) for inet_chksum
    icmp.o(i.icmp_input) refers to ip.o(i.ip_output_if) for ip_output_if
    icmp.o(i.icmp_input) refers to ip.o(.data) for current_iphdr_dest
    icmp.o(i.icmp_send_response) refers to pbuf.o(i.pbuf_alloc) for pbuf_alloc
    icmp.o(i.icmp_send_response) refers to lpc_debug.o(i.assert_loop) for assert_loop
    icmp.o(i.icmp_send_response) refers to rt_memcpy_v6.o(.text) for __aeabi_memcpy
    icmp.o(i.icmp_send_response) refers to inet_chksum.o(i.inet_chksum) for inet_chksum
    icmp.o(i.icmp_send_response) refers to ip.o(i.ip_output) for ip_output
    icmp.o(i.icmp_send_response) refers to pbuf.o(i.pbuf_free) for pbuf_free
    icmp.o(i.icmp_time_exceeded) refers to icmp.o(i.icmp_send_response) for icmp_send_response
    etharp.o(i.etharp_arp_input) refers to lpc_debug.o(i.assert_loop) for assert_loop
    etharp.o(i.etharp_arp_input) refers to etharp.o(i.etharp_update_arp_entry) for etharp_update_arp_entry
    etharp.o(i.etharp_arp_input) refers to def.o(i.lwip_htons) for lwip_htons
    etharp.o(i.etharp_arp_input) refers to dhcp.o(i.dhcp_arp_reply) for dhcp_arp_reply
    etharp.o(i.etharp_arp_input) refers to pbuf.o(i.pbuf_free) for pbuf_free
    etharp.o(i.etharp_cleanup_netif) refers to etharp.o(i.etharp_free_entry) for etharp_free_entry
    etharp.o(i.etharp_cleanup_netif) refers to etharp.o(.bss) for .bss
    etharp.o(i.etharp_find_addr) refers to lpc_debug.o(i.assert_loop) for assert_loop
    etharp.o(i.etharp_find_addr) refers to etharp.o(i.etharp_find_entry) for etharp_find_entry
    etharp.o(i.etharp_find_addr) refers to etharp.o(.bss) for .bss
    etharp.o(i.etharp_find_entry) refers to lpc_debug.o(i.assert_loop) for assert_loop
    etharp.o(i.etharp_find_entry) refers to etharp.o(i.etharp_free_entry) for etharp_free_entry
    etharp.o(i.etharp_find_entry) refers to etharp.o(.bss) for .bss
    etharp.o(i.etharp_free_entry) refers to pbuf.o(i.pbuf_free) for pbuf_free
    etharp.o(i.etharp_free_entry) refers to etharp.o(.bss) for .bss
    etharp.o(i.etharp_output) refers to lpc_debug.o(i.assert_loop) for assert_loop
    etharp.o(i.etharp_output) refers to pbuf.o(i.pbuf_header) for pbuf_header
    etharp.o(i.etharp_output) refers to ip_addr.o(i.ip4_addr_isbroadcast) for ip4_addr_isbroadcast
    etharp.o(i.etharp_output) refers to etharp.o(i.etharp_send_ip) for etharp_send_ip
    etharp.o(i.etharp_output) refers to etharp.o(i.etharp_output_to_arp_index) for etharp_output_to_arp_index
    etharp.o(i.etharp_output) refers to etharp.o(i.etharp_query) for etharp_query
    etharp.o(i.etharp_output) refers to etharp.o(.constdata) for .constdata
    etharp.o(i.etharp_output) refers to etharp.o(.data) for .data
    etharp.o(i.etharp_output) refers to etharp.o(.bss) for .bss
    etharp.o(i.etharp_output_to_arp_index) refers to lpc_debug.o(i.assert_loop) for assert_loop
    etharp.o(i.etharp_output_to_arp_index) refers to etharp.o(i.etharp_request) for etharp_request
    etharp.o(i.etharp_output_to_arp_index) refers to etharp.o(i.etharp_send_ip) for etharp_send_ip
    etharp.o(i.etharp_output_to_arp_index) refers to etharp.o(.bss) for .bss
    etharp.o(i.etharp_query) refers to ip_addr.o(i.ip4_addr_isbroadcast) for ip4_addr_isbroadcast
    etharp.o(i.etharp_query) refers to etharp.o(i.etharp_find_entry) for etharp_find_entry
    etharp.o(i.etharp_query) refers to lpc_debug.o(i.assert_loop) for assert_loop
    etharp.o(i.etharp_query) refers to etharp.o(i.etharp_request) for etharp_request
    etharp.o(i.etharp_query) refers to etharp.o(i.etharp_send_ip) for etharp_send_ip
    etharp.o(i.etharp_query) refers to pbuf.o(i.pbuf_alloc) for pbuf_alloc
    etharp.o(i.etharp_query) refers to pbuf.o(i.pbuf_copy) for pbuf_copy
    etharp.o(i.etharp_query) refers to pbuf.o(i.pbuf_free) for pbuf_free
    etharp.o(i.etharp_query) refers to pbuf.o(i.pbuf_ref) for pbuf_ref
    etharp.o(i.etharp_query) refers to etharp.o(.bss) for .bss
    etharp.o(i.etharp_query) refers to etharp.o(.data) for .data
    etharp.o(i.etharp_raw) refers to lpc_debug.o(i.assert_loop) for assert_loop
    etharp.o(i.etharp_raw) refers to pbuf.o(i.pbuf_alloc) for pbuf_alloc
    etharp.o(i.etharp_raw) refers to def.o(i.lwip_htons) for lwip_htons
    etharp.o(i.etharp_raw) refers to pbuf.o(i.pbuf_free) for pbuf_free
    etharp.o(i.etharp_request) refers to etharp.o(i.etharp_raw) for etharp_raw
    etharp.o(i.etharp_request) refers to etharp.o(.constdata) for .constdata
    etharp.o(i.etharp_send_ip) refers to lpc_debug.o(i.assert_loop) for assert_loop
    etharp.o(i.etharp_tmr) refers to etharp.o(i.etharp_free_entry) for etharp_free_entry
    etharp.o(i.etharp_tmr) refers to etharp.o(.bss) for .bss
    etharp.o(i.etharp_update_arp_entry) refers to lpc_debug.o(i.assert_loop) for assert_loop
    etharp.o(i.etharp_update_arp_entry) refers to ip_addr.o(i.ip4_addr_isbroadcast) for ip4_addr_isbroadcast
    etharp.o(i.etharp_update_arp_entry) refers to etharp.o(i.etharp_find_entry) for etharp_find_entry
    etharp.o(i.etharp_update_arp_entry) refers to etharp.o(i.etharp_send_ip) for etharp_send_ip
    etharp.o(i.etharp_update_arp_entry) refers to pbuf.o(i.pbuf_free) for pbuf_free
    etharp.o(i.etharp_update_arp_entry) refers to etharp.o(.bss) for .bss
    etharp.o(i.ethernet_input) refers to memcmp.o(.text) for memcmp
    etharp.o(i.ethernet_input) refers to pbuf.o(i.pbuf_header) for pbuf_header
    etharp.o(i.ethernet_input) refers to lpc_debug.o(i.assert_loop) for assert_loop
    etharp.o(i.ethernet_input) refers to ip.o(i.ip_input) for ip_input
    etharp.o(i.ethernet_input) refers to etharp.o(i.etharp_arp_input) for etharp_arp_input
    etharp.o(i.ethernet_input) refers to pbuf.o(i.pbuf_free) for pbuf_free
    etharp.o(i.ethernet_input) refers to etharp.o(.constdata) for .constdata
    tcpip.o(i.mem_free_callback) refers to tcpip.o(i.tcpip_callback_with_block) for tcpip_callback_with_block
    tcpip.o(i.mem_free_callback) refers to h1_free.o(.text) for free
    tcpip.o(i.pbuf_free_callback) refers to tcpip.o(i.tcpip_callback_with_block) for tcpip_callback_with_block
    tcpip.o(i.pbuf_free_callback) refers to tcpip.o(i.pbuf_free_int) for pbuf_free_int
    tcpip.o(i.pbuf_free_int) refers to pbuf.o(i.pbuf_free) for pbuf_free
    tcpip.o(i.tcpip_apimsg) refers to sys_arch_freertos.o(i.sys_mbox_post) for sys_mbox_post
    tcpip.o(i.tcpip_apimsg) refers to sys_arch_freertos.o(i.sys_arch_sem_wait) for sys_arch_sem_wait
    tcpip.o(i.tcpip_apimsg) refers to tcpip.o(.data) for .data
    tcpip.o(i.tcpip_callback_with_block) refers to h1_alloc.o(.text) for malloc
    tcpip.o(i.tcpip_callback_with_block) refers to sys_arch_freertos.o(i.sys_mbox_post) for sys_mbox_post
    tcpip.o(i.tcpip_callback_with_block) refers to sys_arch_freertos.o(i.sys_mbox_trypost) for sys_mbox_trypost
    tcpip.o(i.tcpip_callback_with_block) refers to h1_free.o(.text) for free
    tcpip.o(i.tcpip_callback_with_block) refers to tcpip.o(.data) for .data
    tcpip.o(i.tcpip_callback_with_block) refers to memp.o(.constdata) for memp_sizes
    tcpip.o(i.tcpip_callbackmsg_delete) refers to h1_free.o(.text) for free
    tcpip.o(i.tcpip_callbackmsg_new) refers to h1_alloc.o(.text) for malloc
    tcpip.o(i.tcpip_callbackmsg_new) refers to memp.o(.constdata) for memp_sizes
    tcpip.o(i.tcpip_init) refers to init.o(i.lwip_init) for lwip_init
    tcpip.o(i.tcpip_init) refers to sys_arch_freertos.o(i.sys_mbox_new) for sys_mbox_new
    tcpip.o(i.tcpip_init) refers to lpc_debug.o(i.assert_loop) for assert_loop
    tcpip.o(i.tcpip_init) refers to sys_arch_freertos.o(i.sys_thread_new) for sys_thread_new
    tcpip.o(i.tcpip_init) refers to tcpip.o(.data) for .data
    tcpip.o(i.tcpip_init) refers to tcpip.o(i.tcpip_thread) for tcpip_thread
    tcpip.o(i.tcpip_input) refers to h1_alloc.o(.text) for malloc
    tcpip.o(i.tcpip_input) refers to sys_arch_freertos.o(i.sys_mbox_trypost) for sys_mbox_trypost
    tcpip.o(i.tcpip_input) refers to h1_free.o(.text) for free
    tcpip.o(i.tcpip_input) refers to tcpip.o(.data) for .data
    tcpip.o(i.tcpip_input) refers to memp.o(.constdata) for memp_sizes
    tcpip.o(i.tcpip_thread) refers to timers.o(i.sys_timeouts_mbox_fetch) for sys_timeouts_mbox_fetch
    tcpip.o(i.tcpip_thread) refers to etharp.o(i.ethernet_input) for ethernet_input
    tcpip.o(i.tcpip_thread) refers to ip.o(i.ip_input) for ip_input
    tcpip.o(i.tcpip_thread) refers to timers.o(i.sys_timeout) for sys_timeout
    tcpip.o(i.tcpip_thread) refers to timers.o(i.sys_untimeout) for sys_untimeout
    tcpip.o(i.tcpip_thread) refers to h1_free.o(.text) for free
    tcpip.o(i.tcpip_thread) refers to lpc_debug.o(i.assert_loop) for assert_loop
    tcpip.o(i.tcpip_thread) refers to tcpip.o(.data) for .data
    tcpip.o(i.tcpip_timeout) refers to h1_alloc.o(.text) for malloc
    tcpip.o(i.tcpip_timeout) refers to sys_arch_freertos.o(i.sys_mbox_post) for sys_mbox_post
    tcpip.o(i.tcpip_timeout) refers to tcpip.o(.data) for .data
    tcpip.o(i.tcpip_timeout) refers to memp.o(.constdata) for memp_sizes
    tcpip.o(i.tcpip_trycallback) refers to sys_arch_freertos.o(i.sys_mbox_trypost) for sys_mbox_trypost
    tcpip.o(i.tcpip_trycallback) refers to tcpip.o(.data) for .data
    tcpip.o(i.tcpip_untimeout) refers to h1_alloc.o(.text) for malloc
    tcpip.o(i.tcpip_untimeout) refers to sys_arch_freertos.o(i.sys_mbox_post) for sys_mbox_post
    tcpip.o(i.tcpip_untimeout) refers to tcpip.o(.data) for .data
    tcpip.o(i.tcpip_untimeout) refers to memp.o(.constdata) for memp_sizes
    api_msg.o(i.accept_function) refers to api_msg.o(i.netconn_alloc) for netconn_alloc
    api_msg.o(i.accept_function) refers to api_msg.o(i.setup_tcp) for setup_tcp
    api_msg.o(i.accept_function) refers to sys_arch_freertos.o(i.sys_mbox_trypost) for sys_mbox_trypost
    api_msg.o(i.accept_function) refers to tcp.o(i.tcp_arg) for tcp_arg
    api_msg.o(i.accept_function) refers to tcp.o(i.tcp_recv) for tcp_recv
    api_msg.o(i.accept_function) refers to tcp.o(i.tcp_sent) for tcp_sent
    api_msg.o(i.accept_function) refers to tcp.o(i.tcp_poll) for tcp_poll
    api_msg.o(i.accept_function) refers to tcp.o(i.tcp_err) for tcp_err
    api_msg.o(i.accept_function) refers to sys_arch_freertos.o(i.sys_mbox_free) for sys_mbox_free
    api_msg.o(i.accept_function) refers to api_msg.o(i.netconn_free) for netconn_free
    api_msg.o(i.do_bind) refers to udp.o(i.udp_bind) for udp_bind
    api_msg.o(i.do_bind) refers to tcp.o(i.tcp_bind) for tcp_bind
    api_msg.o(i.do_bind) refers to sys_arch_freertos.o(i.sys_sem_signal) for sys_sem_signal
    api_msg.o(i.do_close) refers to lpc_debug.o(i.assert_loop) for assert_loop
    api_msg.o(i.do_close) refers to api_msg.o(i.netconn_drain) for netconn_drain
    api_msg.o(i.do_close) refers to sys_arch_freertos.o(i.sys_sem_signal) for sys_sem_signal
    api_msg.o(i.do_close) refers to api_msg.o(i.do_close_internal) for do_close_internal
    api_msg.o(i.do_close_internal) refers to lpc_debug.o(i.assert_loop) for assert_loop
    api_msg.o(i.do_close_internal) refers to tcp.o(i.tcp_recv) for tcp_recv
    api_msg.o(i.do_close_internal) refers to tcp.o(i.tcp_accept) for tcp_accept
    api_msg.o(i.do_close_internal) refers to tcp.o(i.tcp_sent) for tcp_sent
    api_msg.o(i.do_close_internal) refers to tcp.o(i.tcp_poll) for tcp_poll
    api_msg.o(i.do_close_internal) refers to tcp.o(i.tcp_err) for tcp_err
    api_msg.o(i.do_close_internal) refers to tcp.o(i.tcp_close) for tcp_close
    api_msg.o(i.do_close_internal) refers to tcp.o(i.tcp_arg) for tcp_arg
    api_msg.o(i.do_close_internal) refers to tcp.o(i.tcp_shutdown) for tcp_shutdown
    api_msg.o(i.do_close_internal) refers to sys_arch_freertos.o(i.sys_sem_signal) for sys_sem_signal
    api_msg.o(i.do_close_internal) refers to api_msg.o(i.sent_tcp) for sent_tcp
    api_msg.o(i.do_close_internal) refers to api_msg.o(i.poll_tcp) for poll_tcp
    api_msg.o(i.do_close_internal) refers to api_msg.o(i.err_tcp) for err_tcp
    api_msg.o(i.do_connect) refers to lpc_debug.o(i.assert_loop) for assert_loop
    api_msg.o(i.do_connect) refers to udp.o(i.udp_connect) for udp_connect
    api_msg.o(i.do_connect) refers to api_msg.o(i.setup_tcp) for setup_tcp
    api_msg.o(i.do_connect) refers to tcp.o(i.tcp_connect) for tcp_connect
    api_msg.o(i.do_connect) refers to sys_arch_freertos.o(i.sys_sem_signal) for sys_sem_signal
    api_msg.o(i.do_connect) refers to api_msg.o(i.do_connected) for do_connected
    api_msg.o(i.do_connected) refers to lpc_debug.o(i.assert_loop) for assert_loop
    api_msg.o(i.do_connected) refers to api_msg.o(i.setup_tcp) for setup_tcp
    api_msg.o(i.do_connected) refers to sys_arch_freertos.o(i.sys_arch_protect) for sys_arch_protect
    api_msg.o(i.do_connected) refers to sys_arch_freertos.o(i.sys_arch_unprotect) for sys_arch_unprotect
    api_msg.o(i.do_connected) refers to sys_arch_freertos.o(i.sys_sem_signal) for sys_sem_signal
    api_msg.o(i.do_delconn) refers to lpc_debug.o(i.assert_loop) for assert_loop
    api_msg.o(i.do_delconn) refers to api_msg.o(i.netconn_drain) for netconn_drain
    api_msg.o(i.do_delconn) refers to udp.o(i.udp_remove) for udp_remove
    api_msg.o(i.do_delconn) refers to sys_arch_freertos.o(i.sys_sem_signal) for sys_sem_signal
    api_msg.o(i.do_delconn) refers to api_msg.o(i.do_close_internal) for do_close_internal
    api_msg.o(i.do_disconnect) refers to udp.o(i.udp_disconnect) for udp_disconnect
    api_msg.o(i.do_disconnect) refers to sys_arch_freertos.o(i.sys_sem_signal) for sys_sem_signal
    api_msg.o(i.do_getaddr) refers to lpc_debug.o(i.assert_loop) for assert_loop
    api_msg.o(i.do_getaddr) refers to sys_arch_freertos.o(i.sys_sem_signal) for sys_sem_signal
    api_msg.o(i.do_listen) refers to tcp.o(i.tcp_listen_with_backlog) for tcp_listen_with_backlog
    api_msg.o(i.do_listen) refers to sys_arch_freertos.o(i.sys_mbox_free) for sys_mbox_free
    api_msg.o(i.do_listen) refers to sys_arch_freertos.o(i.sys_mbox_new) for sys_mbox_new
    api_msg.o(i.do_listen) refers to tcp.o(i.tcp_close) for tcp_close
    api_msg.o(i.do_listen) refers to tcp.o(i.tcp_arg) for tcp_arg
    api_msg.o(i.do_listen) refers to tcp.o(i.tcp_accept) for tcp_accept
    api_msg.o(i.do_listen) refers to sys_arch_freertos.o(i.sys_sem_signal) for sys_sem_signal
    api_msg.o(i.do_listen) refers to api_msg.o(i.accept_function) for accept_function
    api_msg.o(i.do_newconn) refers to api_msg.o(i.pcb_new) for pcb_new
    api_msg.o(i.do_newconn) refers to sys_arch_freertos.o(i.sys_sem_signal) for sys_sem_signal
    api_msg.o(i.do_recv) refers to tcp.o(i.tcp_recved) for tcp_recved
    api_msg.o(i.do_recv) refers to sys_arch_freertos.o(i.sys_sem_signal) for sys_sem_signal
    api_msg.o(i.do_send) refers to udp.o(i.udp_sendto_chksum) for udp_sendto_chksum
    api_msg.o(i.do_send) refers to sys_arch_freertos.o(i.sys_sem_signal) for sys_sem_signal
    api_msg.o(i.do_send) refers to udp.o(i.udp_send_chksum) for udp_send_chksum
    api_msg.o(i.do_write) refers to sys_arch_freertos.o(i.sys_sem_signal) for sys_sem_signal
    api_msg.o(i.do_write) refers to lpc_debug.o(i.assert_loop) for assert_loop
    api_msg.o(i.do_write) refers to api_msg.o(i.do_writemore) for do_writemore
    api_msg.o(i.do_writemore) refers to lpc_debug.o(i.assert_loop) for assert_loop
    api_msg.o(i.do_writemore) refers to tcp_out.o(i.tcp_write) for tcp_write
    api_msg.o(i.do_writemore) refers to tcp_out.o(i.tcp_output) for tcp_output
    api_msg.o(i.do_writemore) refers to sys_arch_freertos.o(i.sys_sem_signal) for sys_sem_signal
    api_msg.o(i.err_tcp) refers to lpc_debug.o(i.assert_loop) for assert_loop
    api_msg.o(i.err_tcp) refers to sys_arch_freertos.o(i.sys_arch_protect) for sys_arch_protect
    api_msg.o(i.err_tcp) refers to sys_arch_freertos.o(i.sys_arch_unprotect) for sys_arch_unprotect
    api_msg.o(i.err_tcp) refers to sys_arch_freertos.o(i.sys_mbox_trypost) for sys_mbox_trypost
    api_msg.o(i.err_tcp) refers to sys_arch_freertos.o(i.sys_sem_signal) for sys_sem_signal
    api_msg.o(i.netconn_alloc) refers to h1_alloc.o(.text) for malloc
    api_msg.o(i.netconn_alloc) refers to lpc_debug.o(i.assert_loop) for assert_loop
    api_msg.o(i.netconn_alloc) refers to sys_arch_freertos.o(i.sys_sem_new) for sys_sem_new
    api_msg.o(i.netconn_alloc) refers to sys_arch_freertos.o(i.sys_mbox_new) for sys_mbox_new
    api_msg.o(i.netconn_alloc) refers to sys_arch_freertos.o(i.sys_sem_free) for sys_sem_free
    api_msg.o(i.netconn_alloc) refers to h1_free.o(.text) for free
    api_msg.o(i.netconn_alloc) refers to memp.o(.constdata) for memp_sizes
    api_msg.o(i.netconn_drain) refers to netbuf.o(i.netbuf_delete) for netbuf_delete
    api_msg.o(i.netconn_drain) refers to sys_arch_freertos.o(i.sys_arch_mbox_tryfetch) for sys_arch_mbox_tryfetch
    api_msg.o(i.netconn_drain) refers to sys_arch_freertos.o(i.sys_mbox_free) for sys_mbox_free
    api_msg.o(i.netconn_drain) refers to tcp.o(i.tcp_recved) for tcp_recved
    api_msg.o(i.netconn_drain) refers to pbuf.o(i.pbuf_free) for pbuf_free
    api_msg.o(i.netconn_drain) refers to lpc_debug.o(i.assert_loop) for assert_loop
    api_msg.o(i.netconn_drain) refers to tcp.o(i.tcp_abort) for tcp_abort
    api_msg.o(i.netconn_drain) refers to api_msg.o(i.netconn_free) for netconn_free
    api_msg.o(i.netconn_free) refers to lpc_debug.o(i.assert_loop) for assert_loop
    api_msg.o(i.netconn_free) refers to sys_arch_freertos.o(i.sys_sem_free) for sys_sem_free
    api_msg.o(i.netconn_free) refers to h1_free.o(.text) for free
    api_msg.o(i.pcb_new) refers to lpc_debug.o(i.assert_loop) for assert_loop
    api_msg.o(i.pcb_new) refers to udp.o(i.udp_new) for udp_new
    api_msg.o(i.pcb_new) refers to udp.o(i.udp_recv) for udp_recv
    api_msg.o(i.pcb_new) refers to tcp.o(i.tcp_new) for tcp_new
    api_msg.o(i.pcb_new) refers to api_msg.o(i.setup_tcp) for setup_tcp
    api_msg.o(i.pcb_new) refers to api_msg.o(i.recv_udp) for recv_udp
    api_msg.o(i.poll_tcp) refers to lpc_debug.o(i.assert_loop) for assert_loop
    api_msg.o(i.poll_tcp) refers to api_msg.o(i.do_writemore) for do_writemore
    api_msg.o(i.poll_tcp) refers to api_msg.o(i.do_close_internal) for do_close_internal
    api_msg.o(i.recv_tcp) refers to lpc_debug.o(i.assert_loop) for assert_loop
    api_msg.o(i.recv_tcp) refers to sys_arch_freertos.o(i.sys_arch_protect) for sys_arch_protect
    api_msg.o(i.recv_tcp) refers to sys_arch_freertos.o(i.sys_arch_unprotect) for sys_arch_unprotect
    api_msg.o(i.recv_tcp) refers to tcp.o(i.tcp_recved) for tcp_recved
    api_msg.o(i.recv_tcp) refers to pbuf.o(i.pbuf_free) for pbuf_free
    api_msg.o(i.recv_tcp) refers to sys_arch_freertos.o(i.sys_mbox_trypost) for sys_mbox_trypost
    api_msg.o(i.recv_udp) refers to lpc_debug.o(i.assert_loop) for assert_loop
    api_msg.o(i.recv_udp) refers to h1_alloc.o(.text) for malloc
    api_msg.o(i.recv_udp) refers to sys_arch_freertos.o(i.sys_mbox_trypost) for sys_mbox_trypost
    api_msg.o(i.recv_udp) refers to netbuf.o(i.netbuf_delete) for netbuf_delete
    api_msg.o(i.recv_udp) refers to pbuf.o(i.pbuf_free) for pbuf_free
    api_msg.o(i.recv_udp) refers to memp.o(.constdata) for memp_sizes
    api_msg.o(i.sent_tcp) refers to lpc_debug.o(i.assert_loop) for assert_loop
    api_msg.o(i.sent_tcp) refers to api_msg.o(i.do_writemore) for do_writemore
    api_msg.o(i.sent_tcp) refers to api_msg.o(i.do_close_internal) for do_close_internal
    api_msg.o(i.setup_tcp) refers to tcp.o(i.tcp_arg) for tcp_arg
    api_msg.o(i.setup_tcp) refers to tcp.o(i.tcp_recv) for tcp_recv
    api_msg.o(i.setup_tcp) refers to tcp.o(i.tcp_sent) for tcp_sent
    api_msg.o(i.setup_tcp) refers to tcp.o(i.tcp_poll) for tcp_poll
    api_msg.o(i.setup_tcp) refers to tcp.o(i.tcp_err) for tcp_err
    api_msg.o(i.setup_tcp) refers to api_msg.o(i.recv_tcp) for recv_tcp
    api_msg.o(i.setup_tcp) refers to api_msg.o(i.sent_tcp) for sent_tcp
    api_msg.o(i.setup_tcp) refers to api_msg.o(i.poll_tcp) for poll_tcp
    api_msg.o(i.setup_tcp) refers to api_msg.o(i.err_tcp) for err_tcp
    api_lib.o(i.netconn_accept) refers to sys_arch_freertos.o(i.sys_arch_mbox_fetch) for sys_arch_mbox_fetch
    api_lib.o(i.netconn_accept) refers to lpc_debug.o(i.assert_loop) for assert_loop
    api_lib.o(i.netconn_accept) refers to sys_arch_freertos.o(i.sys_arch_protect) for sys_arch_protect
    api_lib.o(i.netconn_accept) refers to sys_arch_freertos.o(i.sys_arch_unprotect) for sys_arch_unprotect
    api_lib.o(i.netconn_bind) refers to tcpip.o(i.tcpip_apimsg) for tcpip_apimsg
    api_lib.o(i.netconn_bind) refers to sys_arch_freertos.o(i.sys_arch_protect) for sys_arch_protect
    api_lib.o(i.netconn_bind) refers to sys_arch_freertos.o(i.sys_arch_unprotect) for sys_arch_unprotect
    api_lib.o(i.netconn_bind) refers to lpc_debug.o(i.assert_loop) for assert_loop
    api_lib.o(i.netconn_bind) refers to api_msg.o(i.do_bind) for do_bind
    api_lib.o(i.netconn_close) refers to api_lib.o(i.netconn_close_shutdown) for netconn_close_shutdown
    api_lib.o(i.netconn_close_shutdown) refers to tcpip.o(i.tcpip_apimsg) for tcpip_apimsg
    api_lib.o(i.netconn_close_shutdown) refers to sys_arch_freertos.o(i.sys_arch_protect) for sys_arch_protect
    api_lib.o(i.netconn_close_shutdown) refers to sys_arch_freertos.o(i.sys_arch_unprotect) for sys_arch_unprotect
    api_lib.o(i.netconn_close_shutdown) refers to lpc_debug.o(i.assert_loop) for assert_loop
    api_lib.o(i.netconn_close_shutdown) refers to api_msg.o(i.do_close) for do_close
    api_lib.o(i.netconn_connect) refers to tcpip.o(i.tcpip_apimsg) for tcpip_apimsg
    api_lib.o(i.netconn_connect) refers to sys_arch_freertos.o(i.sys_arch_protect) for sys_arch_protect
    api_lib.o(i.netconn_connect) refers to sys_arch_freertos.o(i.sys_arch_unprotect) for sys_arch_unprotect
    api_lib.o(i.netconn_connect) refers to lpc_debug.o(i.assert_loop) for assert_loop
    api_lib.o(i.netconn_connect) refers to api_msg.o(i.do_connect) for do_connect
    api_lib.o(i.netconn_delete) refers to tcpip.o(i.tcpip_apimsg) for tcpip_apimsg
    api_lib.o(i.netconn_delete) refers to api_msg.o(i.netconn_free) for netconn_free
    api_lib.o(i.netconn_delete) refers to api_msg.o(i.do_delconn) for do_delconn
    api_lib.o(i.netconn_disconnect) refers to tcpip.o(i.tcpip_apimsg) for tcpip_apimsg
    api_lib.o(i.netconn_disconnect) refers to sys_arch_freertos.o(i.sys_arch_protect) for sys_arch_protect
    api_lib.o(i.netconn_disconnect) refers to sys_arch_freertos.o(i.sys_arch_unprotect) for sys_arch_unprotect
    api_lib.o(i.netconn_disconnect) refers to lpc_debug.o(i.assert_loop) for assert_loop
    api_lib.o(i.netconn_disconnect) refers to api_msg.o(i.do_disconnect) for do_disconnect
    api_lib.o(i.netconn_getaddr) refers to tcpip.o(i.tcpip_apimsg) for tcpip_apimsg
    api_lib.o(i.netconn_getaddr) refers to sys_arch_freertos.o(i.sys_arch_protect) for sys_arch_protect
    api_lib.o(i.netconn_getaddr) refers to sys_arch_freertos.o(i.sys_arch_unprotect) for sys_arch_unprotect
    api_lib.o(i.netconn_getaddr) refers to lpc_debug.o(i.assert_loop) for assert_loop
    api_lib.o(i.netconn_getaddr) refers to api_msg.o(i.do_getaddr) for do_getaddr
    api_lib.o(i.netconn_listen_with_backlog) refers to tcpip.o(i.tcpip_apimsg) for tcpip_apimsg
    api_lib.o(i.netconn_listen_with_backlog) refers to sys_arch_freertos.o(i.sys_arch_protect) for sys_arch_protect
    api_lib.o(i.netconn_listen_with_backlog) refers to sys_arch_freertos.o(i.sys_arch_unprotect) for sys_arch_unprotect
    api_lib.o(i.netconn_listen_with_backlog) refers to lpc_debug.o(i.assert_loop) for assert_loop
    api_lib.o(i.netconn_listen_with_backlog) refers to api_msg.o(i.do_listen) for do_listen
    api_lib.o(i.netconn_new_with_proto_and_callback) refers to api_msg.o(i.netconn_alloc) for netconn_alloc
    api_lib.o(i.netconn_new_with_proto_and_callback) refers to tcpip.o(i.tcpip_apimsg) for tcpip_apimsg
    api_lib.o(i.netconn_new_with_proto_and_callback) refers to lpc_debug.o(i.assert_loop) for assert_loop
    api_lib.o(i.netconn_new_with_proto_and_callback) refers to sys_arch_freertos.o(i.sys_sem_free) for sys_sem_free
    api_lib.o(i.netconn_new_with_proto_and_callback) refers to sys_arch_freertos.o(i.sys_mbox_free) for sys_mbox_free
    api_lib.o(i.netconn_new_with_proto_and_callback) refers to h1_free.o(.text) for free
    api_lib.o(i.netconn_new_with_proto_and_callback) refers to api_msg.o(i.do_newconn) for do_newconn
    api_lib.o(i.netconn_recv) refers to api_lib.o(i.netconn_recv_data) for netconn_recv_data
    api_lib.o(i.netconn_recv) refers to lpc_debug.o(i.assert_loop) for assert_loop
    api_lib.o(i.netconn_recv) refers to h1_alloc.o(.text) for malloc
    api_lib.o(i.netconn_recv) refers to h1_free.o(.text) for free
    api_lib.o(i.netconn_recv) refers to sys_arch_freertos.o(i.sys_arch_protect) for sys_arch_protect
    api_lib.o(i.netconn_recv) refers to sys_arch_freertos.o(i.sys_arch_unprotect) for sys_arch_unprotect
    api_lib.o(i.netconn_recv) refers to memp.o(.constdata) for memp_sizes
    api_lib.o(i.netconn_recv_data) refers to sys_arch_freertos.o(i.sys_arch_mbox_fetch) for sys_arch_mbox_fetch
    api_lib.o(i.netconn_recv_data) refers to lpc_debug.o(i.assert_loop) for assert_loop
    api_lib.o(i.netconn_recv_data) refers to tcpip.o(i.tcpip_apimsg) for tcpip_apimsg
    api_lib.o(i.netconn_recv_data) refers to sys_arch_freertos.o(i.sys_arch_protect) for sys_arch_protect
    api_lib.o(i.netconn_recv_data) refers to sys_arch_freertos.o(i.sys_arch_unprotect) for sys_arch_unprotect
    api_lib.o(i.netconn_recv_data) refers to api_msg.o(i.do_recv) for do_recv
    api_lib.o(i.netconn_recv_tcp_pbuf) refers to lpc_debug.o(i.assert_loop) for assert_loop
    api_lib.o(i.netconn_recv_tcp_pbuf) refers to api_lib.o(i.netconn_recv_data) for netconn_recv_data
    api_lib.o(i.netconn_recved) refers to tcpip.o(i.tcpip_apimsg) for tcpip_apimsg
    api_lib.o(i.netconn_recved) refers to api_msg.o(i.do_recv) for do_recv
    api_lib.o(i.netconn_send) refers to tcpip.o(i.tcpip_apimsg) for tcpip_apimsg
    api_lib.o(i.netconn_send) refers to sys_arch_freertos.o(i.sys_arch_protect) for sys_arch_protect
    api_lib.o(i.netconn_send) refers to sys_arch_freertos.o(i.sys_arch_unprotect) for sys_arch_unprotect
    api_lib.o(i.netconn_send) refers to lpc_debug.o(i.assert_loop) for assert_loop
    api_lib.o(i.netconn_send) refers to api_msg.o(i.do_send) for do_send
    api_lib.o(i.netconn_sendto) refers to api_lib.o(i.netconn_send) for netconn_send
    api_lib.o(i.netconn_shutdown) refers to api_lib.o(i.netconn_close_shutdown) for netconn_close_shutdown
    api_lib.o(i.netconn_write_partly) refers to lpc_debug.o(i.assert_loop) for assert_loop
    api_lib.o(i.netconn_write_partly) refers to tcpip.o(i.tcpip_apimsg) for tcpip_apimsg
    api_lib.o(i.netconn_write_partly) refers to sys_arch_freertos.o(i.sys_arch_protect) for sys_arch_protect
    api_lib.o(i.netconn_write_partly) refers to sys_arch_freertos.o(i.sys_arch_unprotect) for sys_arch_unprotect
    api_lib.o(i.netconn_write_partly) refers to api_msg.o(i.do_write) for do_write
    sys_arch_freertos.o(i.sys_arch_mbox_fetch) refers to tasks.o(i.xTaskGetTickCount) for xTaskGetTickCount
    sys_arch_freertos.o(i.sys_arch_mbox_fetch) refers to queue.o(i.xQueueGenericReceive) for xQueueGenericReceive
    sys_arch_freertos.o(i.sys_arch_mbox_tryfetch) refers to queue.o(i.xQueueGenericReceive) for xQueueGenericReceive
    sys_arch_freertos.o(i.sys_arch_protect) refers to port.o(i.vPortEnterCritical) for vPortEnterCritical
    sys_arch_freertos.o(i.sys_arch_sem_wait) refers to tasks.o(i.xTaskGetTickCount) for xTaskGetTickCount
    sys_arch_freertos.o(i.sys_arch_sem_wait) refers to queue.o(i.xQueueGenericReceive) for xQueueGenericReceive
    sys_arch_freertos.o(i.sys_arch_unprotect) refers to port.o(i.vPortExitCritical) for vPortExitCritical
    sys_arch_freertos.o(i.sys_mbox_free) refers to queue.o(i.uxQueueMessagesWaiting) for uxQueueMessagesWaiting
    sys_arch_freertos.o(i.sys_mbox_free) refers to queue.o(i.vQueueDelete) for vQueueDelete
    sys_arch_freertos.o(i.sys_mbox_new) refers to queue.o(i.xQueueGenericCreate) for xQueueGenericCreate
    sys_arch_freertos.o(i.sys_mbox_post) refers to queue.o(i.xQueueGenericSend) for xQueueGenericSend
    sys_arch_freertos.o(i.sys_mbox_trypost) refers to queue.o(i.xQueueGenericSend) for xQueueGenericSend
    sys_arch_freertos.o(i.sys_mutex_free) refers to queue.o(i.vQueueDelete) for vQueueDelete
    sys_arch_freertos.o(i.sys_mutex_lock) refers to queue.o(i.xQueueGenericReceive) for xQueueGenericReceive
    sys_arch_freertos.o(i.sys_mutex_new) refers to queue.o(i.xQueueCreateMutex) for xQueueCreateMutex
    sys_arch_freertos.o(i.sys_mutex_unlock) refers to queue.o(i.xQueueGenericSend) for xQueueGenericSend
    sys_arch_freertos.o(i.sys_now) refers to tasks.o(i.xTaskGetTickCount) for xTaskGetTickCount
    sys_arch_freertos.o(i.sys_sem_free) refers to queue.o(i.vQueueDelete) for vQueueDelete
    sys_arch_freertos.o(i.sys_sem_new) refers to queue.o(i.xQueueGenericCreate) for xQueueGenericCreate
    sys_arch_freertos.o(i.sys_sem_new) refers to queue.o(i.xQueueGenericSend) for xQueueGenericSend
    sys_arch_freertos.o(i.sys_sem_new) refers to queue.o(i.xQueueGenericReceive) for xQueueGenericReceive
    sys_arch_freertos.o(i.sys_sem_signal) refers to queue.o(i.xQueueGenericSend) for xQueueGenericSend
    sys_arch_freertos.o(i.sys_thread_new) refers to tasks.o(i.xTaskGenericCreate) for xTaskGenericCreate
    lpc17xx_40xx_emac.o(i.ETH_IRQHandler) refers to queue.o(i.xQueueGenericSendFromISR) for xQueueGenericSendFromISR
    lpc17xx_40xx_emac.o(i.ETH_IRQHandler) refers to lpc17xx_40xx_emac.o(.bss) for .bss
    lpc17xx_40xx_emac.o(i.low_level_init) refers to enet_17xx_40xx.o(i.Chip_ENET_Init) for Chip_ENET_Init
    lpc17xx_40xx_emac.o(i.low_level_init) refers to enet_17xx_40xx.o(i.Chip_ENET_FindMIIDiv) for Chip_ENET_FindMIIDiv
    lpc17xx_40xx_emac.o(i.low_level_init) refers to enet_17xx_40xx.o(i.Chip_ENET_SetupMII) for Chip_ENET_SetupMII
    lpc17xx_40xx_emac.o(i.low_level_init) refers to lpc_phy_smsc87x0.o(i.lpc_phy_init) for lpc_phy_init
    lpc17xx_40xx_emac.o(i.low_level_init) refers to lpc17xx_40xx_emac.o(i.lpc_tx_setup) for lpc_tx_setup
    lpc17xx_40xx_emac.o(i.low_level_init) refers to lpc17xx_40xx_emac.o(i.lpc_rx_setup) for lpc_rx_setup
    lpc17xx_40xx_emac.o(i.low_level_init) refers to lwip_tcpecho_freertos.o(i.msDelay) for msDelay
    lpc17xx_40xx_emac.o(i.lpc_emac_set_duplex) refers to enet_17xx_40xx.o(i.Chip_ENET_SetFullDuplex) for Chip_ENET_SetFullDuplex
    lpc17xx_40xx_emac.o(i.lpc_emac_set_duplex) refers to enet_17xx_40xx.o(i.Chip_ENET_SetHalfDuplex) for Chip_ENET_SetHalfDuplex
    lpc17xx_40xx_emac.o(i.lpc_enetif_init) refers to lpc_debug.o(i.assert_loop) for assert_loop
    lpc17xx_40xx_emac.o(i.lpc_enetif_init) refers to board.o(i.Board_ENET_GetMacADDR) for Board_ENET_GetMacADDR
    lpc17xx_40xx_emac.o(i.lpc_enetif_init) refers to lpc17xx_40xx_emac.o(i.low_level_init) for low_level_init
    lpc17xx_40xx_emac.o(i.lpc_enetif_init) refers to queue.o(i.xQueueCreateCountingSemaphore) for xQueueCreateCountingSemaphore
    lpc17xx_40xx_emac.o(i.lpc_enetif_init) refers to sys_arch_freertos.o(i.sys_mutex_new) for sys_mutex_new
    lpc17xx_40xx_emac.o(i.lpc_enetif_init) refers to sys_arch_freertos.o(i.sys_sem_new) for sys_sem_new
    lpc17xx_40xx_emac.o(i.lpc_enetif_init) refers to sys_arch_freertos.o(i.sys_thread_new) for sys_thread_new
    lpc17xx_40xx_emac.o(i.lpc_enetif_init) refers to lpc17xx_40xx_emac.o(.bss) for .bss
    lpc17xx_40xx_emac.o(i.lpc_enetif_init) refers to lpc17xx_40xx_emac.o(i.lpc_etharp_output) for lpc_etharp_output
    lpc17xx_40xx_emac.o(i.lpc_enetif_init) refers to lpc17xx_40xx_emac.o(i.lpc_low_level_output) for lpc_low_level_output
    lpc17xx_40xx_emac.o(i.lpc_enetif_init) refers to lpc17xx_40xx_emac.o(i.vPacketReceiveTask) for vPacketReceiveTask
    lpc17xx_40xx_emac.o(i.lpc_enetif_init) refers to lpc17xx_40xx_emac.o(i.vTransmitCleanupTask) for vTransmitCleanupTask
    lpc17xx_40xx_emac.o(i.lpc_enetif_input) refers to lpc17xx_40xx_emac.o(i.lpc_low_level_input) for lpc_low_level_input
    lpc17xx_40xx_emac.o(i.lpc_enetif_input) refers to def.o(i.lwip_htons) for lwip_htons
    lpc17xx_40xx_emac.o(i.lpc_enetif_input) refers to pbuf.o(i.pbuf_free) for pbuf_free
    lpc17xx_40xx_emac.o(i.lpc_etharp_output) refers to etharp.o(i.etharp_output) for etharp_output
    lpc17xx_40xx_emac.o(i.lpc_low_level_input) refers to pbuf.o(i.pbuf_free) for pbuf_free
    lpc17xx_40xx_emac.o(i.lpc_low_level_input) refers to lpc17xx_40xx_emac.o(i.lpc_rx_setup) for lpc_rx_setup
    lpc17xx_40xx_emac.o(i.lpc_low_level_input) refers to lpc17xx_40xx_emac.o(i.Chip_ENET_IsRxEmpty) for Chip_ENET_IsRxEmpty
    lpc17xx_40xx_emac.o(i.lpc_low_level_input) refers to lpc17xx_40xx_emac.o(i.lpc_rx_queue) for lpc_rx_queue
    lpc17xx_40xx_emac.o(i.lpc_low_level_input) refers to enet_17xx_40xx.o(i.Chip_ENET_IncRXConsumeIndex) for Chip_ENET_IncRXConsumeIndex
    lpc17xx_40xx_emac.o(i.lpc_low_level_input) refers to lpc17xx_40xx_emac.o(i.lpc_rxqueue_pbuf) for lpc_rxqueue_pbuf
    lpc17xx_40xx_emac.o(i.lpc_low_level_output) refers to pbuf.o(i.pbuf_clen) for pbuf_clen
    lpc17xx_40xx_emac.o(i.lpc_low_level_output) refers to lpc_debug.o(i.assert_loop) for assert_loop
    lpc17xx_40xx_emac.o(i.lpc_low_level_output) refers to queue.o(i.xQueueGenericReceive) for xQueueGenericReceive
    lpc17xx_40xx_emac.o(i.lpc_low_level_output) refers to lpc17xx_40xx_emac.o(i.lpc_tx_ready) for lpc_tx_ready
    lpc17xx_40xx_emac.o(i.lpc_low_level_output) refers to sys_arch_freertos.o(i.sys_mutex_lock) for sys_mutex_lock
    lpc17xx_40xx_emac.o(i.lpc_low_level_output) refers to pbuf.o(i.pbuf_ref) for pbuf_ref
    lpc17xx_40xx_emac.o(i.lpc_low_level_output) refers to enet_17xx_40xx.o(i.Chip_ENET_IncTXProduceIndex) for Chip_ENET_IncTXProduceIndex
    lpc17xx_40xx_emac.o(i.lpc_low_level_output) refers to sys_arch_freertos.o(i.sys_mutex_unlock) for sys_mutex_unlock
    lpc17xx_40xx_emac.o(i.lpc_rx_queue) refers to pbuf.o(i.pbuf_alloc) for pbuf_alloc
    lpc17xx_40xx_emac.o(i.lpc_rx_queue) refers to pbuf.o(i.pbuf_clen) for pbuf_clen
    lpc17xx_40xx_emac.o(i.lpc_rx_queue) refers to lpc_debug.o(i.assert_loop) for assert_loop
    lpc17xx_40xx_emac.o(i.lpc_rx_queue) refers to lpc17xx_40xx_emac.o(i.lpc_rxqueue_pbuf) for lpc_rxqueue_pbuf
    lpc17xx_40xx_emac.o(i.lpc_rx_setup) refers to enet_17xx_40xx.o(i.Chip_ENET_InitRxDescriptors) for Chip_ENET_InitRxDescriptors
    lpc17xx_40xx_emac.o(i.lpc_rx_setup) refers to lpc17xx_40xx_emac.o(i.lpc_rx_queue) for lpc_rx_queue
    lpc17xx_40xx_emac.o(i.lpc_tx_ready) refers to enet_17xx_40xx.o(i.Chip_ENET_GetFillDescNum) for Chip_ENET_GetFillDescNum
    lpc17xx_40xx_emac.o(i.lpc_tx_reclaim) refers to sys_arch_freertos.o(i.sys_mutex_lock) for sys_mutex_lock
    lpc17xx_40xx_emac.o(i.lpc_tx_reclaim) refers to pbuf.o(i.pbuf_free) for pbuf_free
    lpc17xx_40xx_emac.o(i.lpc_tx_reclaim) refers to queue.o(i.xQueueGenericSend) for xQueueGenericSend
    lpc17xx_40xx_emac.o(i.lpc_tx_reclaim) refers to sys_arch_freertos.o(i.sys_mutex_unlock) for sys_mutex_unlock
    lpc17xx_40xx_emac.o(i.lpc_tx_setup) refers to enet_17xx_40xx.o(i.Chip_ENET_InitTxDescriptors) for Chip_ENET_InitTxDescriptors
    lpc17xx_40xx_emac.o(i.vPacketReceiveTask) refers to sys_arch_freertos.o(i.sys_arch_sem_wait) for sys_arch_sem_wait
    lpc17xx_40xx_emac.o(i.vPacketReceiveTask) refers to lpc17xx_40xx_emac.o(i.lpc_enetif_input) for lpc_enetif_input
    lpc17xx_40xx_emac.o(i.vPacketReceiveTask) refers to lpc17xx_40xx_emac.o(i.Chip_ENET_IsRxEmpty) for Chip_ENET_IsRxEmpty
    lpc17xx_40xx_emac.o(i.vTransmitCleanupTask) refers to sys_arch_freertos.o(i.sys_arch_sem_wait) for sys_arch_sem_wait
    lpc17xx_40xx_emac.o(i.vTransmitCleanupTask) refers to sys_arch_freertos.o(i.sys_mutex_lock) for sys_mutex_lock
    lpc17xx_40xx_emac.o(i.vTransmitCleanupTask) refers to pbuf.o(i.pbuf_free) for pbuf_free
    lpc17xx_40xx_emac.o(i.vTransmitCleanupTask) refers to sys_arch_freertos.o(i.sys_mutex_unlock) for sys_mutex_unlock
    lpc17xx_40xx_emac.o(i.vTransmitCleanupTask) refers to lpc17xx_40xx_emac.o(i.lpc_tx_setup) for lpc_tx_setup
    lpc17xx_40xx_emac.o(i.vTransmitCleanupTask) refers to lpc17xx_40xx_emac.o(i.lpc_tx_reclaim) for lpc_tx_reclaim
    lpc17xx_40xx_emac.o(i.vTransmitCleanupTask) refers to lpc17xx_40xx_emac.o(.bss) for .bss
    netbuf.o(i.netbuf_alloc) refers to pbuf.o(i.pbuf_free) for pbuf_free
    netbuf.o(i.netbuf_alloc) refers to pbuf.o(i.pbuf_alloc) for pbuf_alloc
    netbuf.o(i.netbuf_alloc) refers to lpc_debug.o(i.assert_loop) for assert_loop
    netbuf.o(i.netbuf_chain) refers to pbuf.o(i.pbuf_cat) for pbuf_cat
    netbuf.o(i.netbuf_chain) refers to h1_free.o(.text) for free
    netbuf.o(i.netbuf_chain) refers to lpc_debug.o(i.assert_loop) for assert_loop
    netbuf.o(i.netbuf_data) refers to lpc_debug.o(i.assert_loop) for assert_loop
    netbuf.o(i.netbuf_delete) refers to pbuf.o(i.pbuf_free) for pbuf_free
    netbuf.o(i.netbuf_delete) refers to h1_free.o(.text) for free
    netbuf.o(i.netbuf_first) refers to lpc_debug.o(i.assert_loop) for assert_loop
    netbuf.o(i.netbuf_free) refers to pbuf.o(i.pbuf_free) for pbuf_free
    netbuf.o(i.netbuf_free) refers to lpc_debug.o(i.assert_loop) for assert_loop
    netbuf.o(i.netbuf_new) refers to h1_alloc.o(.text) for malloc
    netbuf.o(i.netbuf_new) refers to memp.o(.constdata) for memp_sizes
    netbuf.o(i.netbuf_next) refers to lpc_debug.o(i.assert_loop) for assert_loop
    netbuf.o(i.netbuf_ref) refers to pbuf.o(i.pbuf_free) for pbuf_free
    netbuf.o(i.netbuf_ref) refers to pbuf.o(i.pbuf_alloc) for pbuf_alloc
    netbuf.o(i.netbuf_ref) refers to lpc_debug.o(i.assert_loop) for assert_loop
    lpc_phy_smsc87x0.o(i.lpcPHYStsPoll) refers to enet_17xx_40xx.o(i.Chip_ENET_StartMIIRead) for Chip_ENET_StartMIIRead
    lpc_phy_smsc87x0.o(i.lpcPHYStsPoll) refers to enet_17xx_40xx.o(i.Chip_ENET_ReadMIIData) for Chip_ENET_ReadMIIData
    lpc_phy_smsc87x0.o(i.lpcPHYStsPoll) refers to lpc_phy_smsc87x0.o(i.smsc_update_phy_sts) for smsc_update_phy_sts
    lpc_phy_smsc87x0.o(i.lpcPHYStsPoll) refers to lpc_phy_smsc87x0.o(.data) for .data
    lpc_phy_smsc87x0.o(i.lpc_mii_write) refers to enet_17xx_40xx.o(i.Chip_ENET_StartMIIWrite) for Chip_ENET_StartMIIWrite
    lpc_phy_smsc87x0.o(i.lpc_mii_write) refers to lpc_phy_smsc87x0.o(.data) for .data
    lpc_phy_smsc87x0.o(i.lpc_phy_init) refers to lpc_phy_smsc87x0.o(i.lpc_mii_write) for lpc_mii_write
    lpc_phy_smsc87x0.o(i.lpc_phy_init) refers to enet_17xx_40xx.o(i.Chip_ENET_StartMIIRead) for Chip_ENET_StartMIIRead
    lpc_phy_smsc87x0.o(i.lpc_phy_init) refers to enet_17xx_40xx.o(i.Chip_ENET_ReadMIIData) for Chip_ENET_ReadMIIData
    lpc_phy_smsc87x0.o(i.lpc_phy_init) refers to lpc_phy_smsc87x0.o(.data) for .data
    lpc_phy_smsc87x0.o(i.smsc_update_phy_sts) refers to lpc_phy_smsc87x0.o(.data) for .data
    board.o(i.Board_Audio_Init) refers to i2s_17xx_40xx.o(i.Chip_I2S_Init) for Chip_I2S_Init
    board.o(i.Board_Audio_Init) refers to i2s_17xx_40xx.o(i.Chip_I2S_TxConfig) for Chip_I2S_TxConfig
    board.o(i.Board_Buttons_Init) refers to board.o(i.Chip_GPIO_WriteDirBit) for Chip_GPIO_WriteDirBit
    board.o(i.Board_Debug_Init) refers to uart_17xx_40xx.o(i.Chip_UART_Init) for Chip_UART_Init
    board.o(i.Board_Debug_Init) refers to uart_17xx_40xx.o(i.Chip_UART_SetBaud) for Chip_UART_SetBaud
    board.o(i.Board_Debug_Init) refers to uart_17xx_40xx.o(i.Chip_UART_TXEnable) for Chip_UART_TXEnable
    board.o(i.Board_I2C_Init) refers to iocon_17xx_40xx.o(i.Chip_IOCON_PinMux) for Chip_IOCON_PinMux
    board.o(i.Board_I2C_Init) refers to board.o(i.Chip_IOCON_EnableOD) for Chip_IOCON_EnableOD
    board.o(i.Board_Init) refers to board.o(i.Board_Debug_Init) for Board_Debug_Init
    board.o(i.Board_Init) refers to clock_17xx_40xx.o(i.Chip_Clock_EnablePeriphClock) for Chip_Clock_EnablePeriphClock
    board.o(i.Board_Init) refers to board.o(i.Chip_GPIO_WriteDirBit) for Chip_GPIO_WriteDirBit
    board.o(i.Board_Joystick_Init) refers to board.o(i.Chip_GPIO_SetPinDIRInput) for Chip_GPIO_SetPinDIRInput
    board.o(i.Board_Joystick_Init) refers to board.o(.constdata) for .constdata
    board.o(i.Board_LED_Set) refers to board.o(i.Chip_GPIO_WritePortBit) for Chip_GPIO_WritePortBit
    board.o(i.Board_LED_Test) refers to board.o(i.Chip_GPIO_ReadPortBit) for Chip_GPIO_ReadPortBit
    board.o(i.Board_LED_Toggle) refers to board.o(i.Board_LED_Test) for Board_LED_Test
    board.o(i.Board_LED_Toggle) refers to board.o(i.Board_LED_Set) for Board_LED_Set
    board.o(i.Board_SPI_AssertSSEL) refers to board.o(i.Chip_GPIO_WritePortBit) for Chip_GPIO_WritePortBit
    board.o(i.Board_SPI_DeassertSSEL) refers to board.o(i.Chip_GPIO_WritePortBit) for Chip_GPIO_WritePortBit
    board.o(i.Board_SPI_Init) refers to iocon_17xx_40xx.o(i.Chip_IOCON_PinMux) for Chip_IOCON_PinMux
    board.o(i.Board_SPI_Init) refers to board.o(i.Chip_GPIO_WriteDirBit) for Chip_GPIO_WriteDirBit
    board.o(i.Board_SPI_Init) refers to board.o(i.Board_SPI_DeassertSSEL) for Board_SPI_DeassertSSEL
    board.o(i.Board_SSP_Init) refers to iocon_17xx_40xx.o(i.Chip_IOCON_PinMux) for Chip_IOCON_PinMux
    board.o(i.Board_UARTPutSTR) refers to board.o(i.Board_UARTPutChar) for Board_UARTPutChar
    board.o(i.Board_USBD_Init) refers to iocon_17xx_40xx.o(i.Chip_IOCON_PinMux) for Chip_IOCON_PinMux
    board.o(i.Buttons_GetStatus) refers to board.o(i.Chip_GPIO_ReadPortBit) for Chip_GPIO_ReadPortBit
    board.o(i.Chip_GPIO_WriteDirBit) refers to board.o(i.Chip_GPIO_SetPinDIRInput) for Chip_GPIO_SetPinDIRInput
    board.o(i.Joystick_GetStatus) refers to board.o(.constdata) for .constdata
    board.o(i.fgetc) refers to board.o(i.Board_UARTGetChar) for Board_UARTGetChar
    board.o(i.fputc) refers to board.o(i.Board_UARTPutChar) for Board_UARTPutChar
    board_sysinit.o(i.Board_SetupClocking) refers to sysinit_17xx_40xx.o(i.Chip_SetupXtalClocking) for Chip_SetupXtalClocking
    board_sysinit.o(i.Board_SetupMuxing) refers to iocon_17xx_40xx.o(i.Chip_IOCON_SetPinMuxing) for Chip_IOCON_SetPinMuxing
    board_sysinit.o(i.Board_SetupMuxing) refers to board_sysinit.o(.constdata) for .constdata
    board_sysinit.o(i.Board_SystemInit) refers to board_sysinit.o(i.Board_SetupMuxing) for Board_SetupMuxing
    board_sysinit.o(i.Board_SystemInit) refers to board_sysinit.o(i.Board_SetupClocking) for Board_SetupClocking
    enet_17xx_40xx.o(i.Chip_ENET_DeInit) refers to clock_17xx_40xx.o(i.Chip_Clock_DisablePeriphClock) for Chip_Clock_DisablePeriphClock
    enet_17xx_40xx.o(i.Chip_ENET_FindMIIDiv) refers to clock_17xx_40xx.o(i.Chip_Clock_GetSystemClockRate) for Chip_Clock_GetSystemClockRate
    enet_17xx_40xx.o(i.Chip_ENET_FindMIIDiv) refers to enet_17xx_40xx.o(.constdata) for .constdata
    enet_17xx_40xx.o(i.Chip_ENET_Init) refers to clock_17xx_40xx.o(i.Chip_Clock_EnablePeriphClock) for Chip_Clock_EnablePeriphClock
    enet_17xx_40xx.o(i.Chip_ENET_SetupMII) refers to enet_17xx_40xx.o(.data) for .data
    enet_17xx_40xx.o(i.Chip_ENET_StartMIIRead) refers to enet_17xx_40xx.o(.data) for .data
    enet_17xx_40xx.o(i.Chip_ENET_StartMIIWrite) refers to enet_17xx_40xx.o(.data) for .data
    chip_17xx_40xx.o(i.Chip_USB_Init) refers to clock_17xx_40xx.o(i.Chip_Clock_SetupPLL) for Chip_Clock_SetupPLL
    chip_17xx_40xx.o(i.Chip_USB_Init) refers to clock_17xx_40xx.o(i.Chip_Clock_EnablePLL) for Chip_Clock_EnablePLL
    chip_17xx_40xx.o(i.Chip_USB_Init) refers to clock_17xx_40xx.o(i.Chip_Clock_EnablePeriphClock) for Chip_Clock_EnablePeriphClock
    chip_17xx_40xx.o(i.SystemCoreClockUpdate) refers to clock_17xx_40xx.o(i.Chip_Clock_GetSystemClockRate) for Chip_Clock_GetSystemClockRate
    chip_17xx_40xx.o(i.SystemCoreClockUpdate) refers to chip_17xx_40xx.o(.data) for .data
    clock_17xx_40xx.o(i.Chip_Clock_DisablePLL) refers to clock_17xx_40xx.o(i.Chip_Clock_FeedPLL) for Chip_Clock_FeedPLL
    clock_17xx_40xx.o(i.Chip_Clock_EnablePLL) refers to clock_17xx_40xx.o(i.Chip_Clock_FeedPLL) for Chip_Clock_FeedPLL
    clock_17xx_40xx.o(i.Chip_Clock_GetMainClockRate) refers to clock_17xx_40xx.o(i.Chip_Clock_GetCPUClockSource) for Chip_Clock_GetCPUClockSource
    clock_17xx_40xx.o(i.Chip_Clock_GetMainClockRate) refers to clock_17xx_40xx.o(i.Chip_Clock_GetMainPLLOutClockRate) for Chip_Clock_GetMainPLLOutClockRate
    clock_17xx_40xx.o(i.Chip_Clock_GetMainClockRate) refers to clock_17xx_40xx.o(i.Chip_Clock_GetSYSCLKRate) for Chip_Clock_GetSYSCLKRate
    clock_17xx_40xx.o(i.Chip_Clock_GetMainPLLOutClockRate) refers to clock_17xx_40xx.o(i.Chip_Clock_GetSYSCLKRate) for Chip_Clock_GetSYSCLKRate
    clock_17xx_40xx.o(i.Chip_Clock_GetPeripheralClockRate) refers to clock_17xx_40xx.o(i.Chip_Clock_GetSystemClockRate) for Chip_Clock_GetSystemClockRate
    clock_17xx_40xx.o(i.Chip_Clock_GetPeripheralClockRate) refers to clock_17xx_40xx.o(i.Chip_Clock_GetPCLKDiv) for Chip_Clock_GetPCLKDiv
    clock_17xx_40xx.o(i.Chip_Clock_GetSYSCLKRate) refers to board.o(.constdata) for OscRateIn
    clock_17xx_40xx.o(i.Chip_Clock_GetSYSCLKRate) refers to board.o(.constdata) for RTCOscRateIn
    clock_17xx_40xx.o(i.Chip_Clock_GetSystemClockRate) refers to clock_17xx_40xx.o(i.Chip_Clock_GetMainClockRate) for Chip_Clock_GetMainClockRate
    clock_17xx_40xx.o(i.Chip_Clock_GetSystemClockRate) refers to clock_17xx_40xx.o(i.Chip_Clock_GetCPUClockDiv) for Chip_Clock_GetCPUClockDiv
    clock_17xx_40xx.o(i.Chip_Clock_GetUSBClockRate) refers to clock_17xx_40xx.o(i.Chip_Clock_GetUSBPLLOutClockRate) for Chip_Clock_GetUSBPLLOutClockRate
    clock_17xx_40xx.o(i.Chip_Clock_GetUSBClockRate) refers to clock_17xx_40xx.o(i.Chip_Clock_GetMainClockRate) for Chip_Clock_GetMainClockRate
    clock_17xx_40xx.o(i.Chip_Clock_GetUSBClockRate) refers to clock_17xx_40xx.o(i.Chip_Clock_GetUSBClockDiv) for Chip_Clock_GetUSBClockDiv
    clock_17xx_40xx.o(i.Chip_Clock_GetUSBPLLOutClockRate) refers to board.o(.constdata) for OscRateIn
    clock_17xx_40xx.o(i.Chip_Clock_SetCPUClockSource) refers to clock_17xx_40xx.o(i.Chip_Clock_DisablePLL) for Chip_Clock_DisablePLL
    clock_17xx_40xx.o(i.Chip_Clock_SetCPUClockSource) refers to clock_17xx_40xx.o(i.Chip_Clock_EnablePLL) for Chip_Clock_EnablePLL
    clock_17xx_40xx.o(i.Chip_Clock_SetupPLL) refers to clock_17xx_40xx.o(i.Chip_Clock_FeedPLL) for Chip_Clock_FeedPLL
    i2s_17xx_40xx.o(i.Chip_I2S_DeInit) refers to clock_17xx_40xx.o(i.Chip_Clock_DisablePeriphClock) for Chip_Clock_DisablePeriphClock
    i2s_17xx_40xx.o(i.Chip_I2S_Init) refers to clock_17xx_40xx.o(i.Chip_Clock_EnablePeriphClock) for Chip_Clock_EnablePeriphClock
    i2s_17xx_40xx.o(i.Chip_I2S_RxConfig) refers to i2s_17xx_40xx.o(i.getClkDiv) for getClkDiv
    i2s_17xx_40xx.o(i.Chip_I2S_TxConfig) refers to i2s_17xx_40xx.o(i.getClkDiv) for getClkDiv
    i2s_17xx_40xx.o(i.getClkDiv) refers to clock_17xx_40xx.o(i.Chip_Clock_GetPeripheralClockRate) for Chip_Clock_GetPeripheralClockRate
    i2s_17xx_40xx.o(i.getClkDiv) refers to lludivv7m.o(.text) for __aeabi_uldivmod
    iocon_17xx_40xx.o(i.Chip_IOCON_PinMuxSet) refers to iocon_17xx_40xx.o(i.Chip_IOCON_PinMux) for Chip_IOCON_PinMux
    iocon_17xx_40xx.o(i.Chip_IOCON_SetPinMuxing) refers to iocon_17xx_40xx.o(i.Chip_IOCON_PinMuxSet) for Chip_IOCON_PinMuxSet
    uart_17xx_40xx.o(i.Chip_UART_DeInit) refers to uart_17xx_40xx.o(i.Chip_UART_GetClockIndex) for Chip_UART_GetClockIndex
    uart_17xx_40xx.o(i.Chip_UART_DeInit) refers to clock_17xx_40xx.o(i.Chip_Clock_DisablePeriphClock) for Chip_Clock_DisablePeriphClock
    uart_17xx_40xx.o(i.Chip_UART_GetABEOStatus) refers to uart_17xx_40xx.o(.data) for .data
    uart_17xx_40xx.o(i.Chip_UART_IRQRBHandler) refers to uart_17xx_40xx.o(i.Chip_UART_TXIntHandlerRB) for Chip_UART_TXIntHandlerRB
    uart_17xx_40xx.o(i.Chip_UART_IRQRBHandler) refers to uart_17xx_40xx.o(i.Chip_UART_RXIntHandlerRB) for Chip_UART_RXIntHandlerRB
    uart_17xx_40xx.o(i.Chip_UART_IRQRBHandler) refers to uart_17xx_40xx.o(.data) for .data
    uart_17xx_40xx.o(i.Chip_UART_Init) refers to uart_17xx_40xx.o(i.Chip_UART_GetClockIndex) for Chip_UART_GetClockIndex
    uart_17xx_40xx.o(i.Chip_UART_Init) refers to clock_17xx_40xx.o(i.Chip_Clock_EnablePeriphClock) for Chip_Clock_EnablePeriphClock
    uart_17xx_40xx.o(i.Chip_UART_RXIntHandlerRB) refers to ring_buffer.o(i.RingBuffer_Insert) for RingBuffer_Insert
    uart_17xx_40xx.o(i.Chip_UART_ReadBlocking) refers to uart_17xx_40xx.o(i.Chip_UART_Read) for Chip_UART_Read
    uart_17xx_40xx.o(i.Chip_UART_ReadRB) refers to ring_buffer.o(i.RingBuffer_PopMult) for RingBuffer_PopMult
    uart_17xx_40xx.o(i.Chip_UART_SendBlocking) refers to uart_17xx_40xx.o(i.Chip_UART_Send) for Chip_UART_Send
    uart_17xx_40xx.o(i.Chip_UART_SendRB) refers to ring_buffer.o(i.RingBuffer_InsertMult) for RingBuffer_InsertMult
    uart_17xx_40xx.o(i.Chip_UART_SendRB) refers to uart_17xx_40xx.o(i.Chip_UART_TXIntHandlerRB) for Chip_UART_TXIntHandlerRB
    uart_17xx_40xx.o(i.Chip_UART_SetBaud) refers to uart_17xx_40xx.o(i.Chip_UART_GetClkIndex) for Chip_UART_GetClkIndex
    uart_17xx_40xx.o(i.Chip_UART_SetBaud) refers to clock_17xx_40xx.o(i.Chip_Clock_GetPeripheralClockRate) for Chip_Clock_GetPeripheralClockRate
    uart_17xx_40xx.o(i.Chip_UART_SetBaudFDR) refers to uart_17xx_40xx.o(i.Chip_UART_GetClkIndex) for Chip_UART_GetClkIndex
    uart_17xx_40xx.o(i.Chip_UART_SetBaudFDR) refers to clock_17xx_40xx.o(i.Chip_Clock_GetPeripheralClockRate) for Chip_Clock_GetPeripheralClockRate
    uart_17xx_40xx.o(i.Chip_UART_SetBaudFDR) refers to lludivv7m.o(.text) for __aeabi_uldivmod
    uart_17xx_40xx.o(i.Chip_UART_TXIntHandlerRB) refers to ring_buffer.o(i.RingBuffer_Pop) for RingBuffer_Pop
    sysinit_17xx_40xx.o(i.Chip_SetupIrcClocking) refers to clock_17xx_40xx.o(i.Chip_Clock_DisablePLL) for Chip_Clock_DisablePLL
    sysinit_17xx_40xx.o(i.Chip_SetupIrcClocking) refers to clock_17xx_40xx.o(i.Chip_Clock_SetCPUClockDiv) for Chip_Clock_SetCPUClockDiv
    sysinit_17xx_40xx.o(i.Chip_SetupIrcClocking) refers to clock_17xx_40xx.o(i.Chip_Clock_SetupPLL) for Chip_Clock_SetupPLL
    sysinit_17xx_40xx.o(i.Chip_SetupIrcClocking) refers to clock_17xx_40xx.o(i.Chip_Clock_EnablePLL) for Chip_Clock_EnablePLL
    sysinit_17xx_40xx.o(i.Chip_SetupXtalClocking) refers to clock_17xx_40xx.o(i.Chip_Clock_DisablePLL) for Chip_Clock_DisablePLL
    sysinit_17xx_40xx.o(i.Chip_SetupXtalClocking) refers to clock_17xx_40xx.o(i.Chip_Clock_SetCPUClockDiv) for Chip_Clock_SetCPUClockDiv
    sysinit_17xx_40xx.o(i.Chip_SetupXtalClocking) refers to clock_17xx_40xx.o(i.Chip_Clock_SetupPLL) for Chip_Clock_SetupPLL
    sysinit_17xx_40xx.o(i.Chip_SetupXtalClocking) refers to clock_17xx_40xx.o(i.Chip_Clock_EnablePLL) for Chip_Clock_EnablePLL
    sysinit_17xx_40xx.o(i.Chip_SystemInit) refers to sysinit_17xx_40xx.o(i.Chip_SetupIrcClocking) for Chip_SetupIrcClocking
    ring_buffer.o(i.RingBuffer_Insert) refers to ring_buffer.o(i.RingBuffer_IsFull) for RingBuffer_IsFull
    ring_buffer.o(i.RingBuffer_Insert) refers to rt_memcpy_v6.o(.text) for __aeabi_memcpy
    ring_buffer.o(i.RingBuffer_InsertMult) refers to ring_buffer.o(i.RingBuffer_IsFull) for RingBuffer_IsFull
    ring_buffer.o(i.RingBuffer_InsertMult) refers to rt_memcpy_v6.o(.text) for __aeabi_memcpy
    ring_buffer.o(i.RingBuffer_Pop) refers to ring_buffer.o(i.RingBuffer_IsEmpty) for RingBuffer_IsEmpty
    ring_buffer.o(i.RingBuffer_Pop) refers to rt_memcpy_v6.o(.text) for __aeabi_memcpy
    ring_buffer.o(i.RingBuffer_PopMult) refers to ring_buffer.o(i.RingBuffer_IsEmpty) for RingBuffer_IsEmpty
    ring_buffer.o(i.RingBuffer_PopMult) refers to rt_memcpy_v6.o(.text) for __aeabi_memcpy
    malloc.o(.text) refers (Special) to hguard.o(.text) for __heap$guard
    malloc.o(.text) refers (Special) to init_alloc.o(.text) for _init_alloc
    malloc.o(.text) refers to rt_heap_descriptor_intlibspace.o(.text) for __rt_heap_descriptor
    malloc.o(.text) refers to heapstubs.o(.text) for __Heap_Alloc
    free.o(.text) refers (Special) to hguard.o(.text) for __heap$guard
    free.o(.text) refers to rt_heap_descriptor_intlibspace.o(.text) for __rt_heap_descriptor
    free.o(.text) refers to heapstubs.o(.text) for __Heap_Free
    h1_alloc.o(.text) refers (Special) to h1_init.o(.text) for __Heap_Initialize
    h1_alloc.o(.text) refers to rt_heap_descriptor_intlibspace.o(.text) for __rt_heap_descriptor
    h1_alloc.o(.text) refers to init_alloc.o(.text) for __Heap_Full
    h1_free.o(.text) refers to rt_heap_descriptor_intlibspace.o(.text) for __rt_heap_descriptor
    h1_alloc_mt.o(.text) refers (Special) to h1_init.o(.text) for __Heap_Initialize
    h1_alloc_mt.o(.text) refers to init_alloc.o(.text) for __Heap_Full
    h1_alloc_mt.o(.text) refers to rt_heap_descriptor_intlibspace.o(.text) for __rt_heap_descriptor
    h1_free_mt.o(.text) refers to rt_heap_descriptor_intlibspace.o(.text) for __rt_heap_descriptor
    heap2.o(i._FDIterate) refers to heap2.o(.conststring) for .conststring
    heap2.o(i.___Heap_ProvideMemory$realtime) refers to fdtree.o(i._FDTree_Delete) for _FDTree_Delete
    heap2.o(i.___Heap_ProvideMemory$realtime) refers to fdtree.o(i._FDTree_Insert) for _FDTree_Insert
    heap2.o(i.___Heap_Stats$realtime) refers to heap2.o(i._Heap2_StatsIterate) for _Heap2_StatsIterate
    heap2.o(i.___Heap_Valid$realtime) refers to heap2.o(i._FDIterate) for _FDIterate
    heap2.o(i.___Heap_Valid$realtime) refers to heap2.o(.conststring) for .conststring
    heap2.o(i._free$realtime) refers to rt_heap_descriptor_intlibspace.o(.text) for __rt_heap_descriptor
    heap2.o(i._free$realtime) refers to fdtree.o(i._FDTree_Delete) for _FDTree_Delete
    heap2.o(i._free$realtime) refers to fdtree.o(i._FDTree_Insert) for _FDTree_Insert
    heap2.o(i._malloc$realtime) refers to rt_heap_descriptor_intlibspace.o(.text) for __rt_heap_descriptor
    heap2.o(i._malloc$realtime) refers to fdtree.o(i._FDTree_FindFirst) for _FDTree_FindFirst
    heap2.o(i._malloc$realtime) refers to init_alloc.o(.text) for __Heap_Full
    heap2.o(i._malloc$realtime) refers to fdtree.o(i._FDTree_RemoveNode) for _FDTree_RemoveNode
    heap2.o(i._malloc$realtime) refers to fdtree.o(i._FDTree_Insert) for _FDTree_Insert
    heap2.o(i._posix_memalign$realtime) refers to rt_heap_descriptor_intlibspace.o(.text) for __rt_heap_descriptor
    heap2.o(i._posix_memalign$realtime) refers to fdtree.o(i._FDTree_FindFirst) for _FDTree_FindFirst
    heap2.o(i._posix_memalign$realtime) refers to init_alloc.o(.text) for __Heap_Full
    heap2.o(i._posix_memalign$realtime) refers to fdtree.o(i._FDTree_RemoveNode) for _FDTree_RemoveNode
    heap2.o(i._posix_memalign$realtime) refers to fdtree.o(i._FDTree_Insert) for _FDTree_Insert
    heap2.o(i._realloc$realtime) refers to rt_heap_descriptor_intlibspace.o(.text) for __rt_heap_descriptor
    heap2.o(i._realloc$realtime) refers to fdtree.o(i._FDTree_Insert) for _FDTree_Insert
    heap2.o(i._realloc$realtime) refers to h1_free.o(.text) for free
    heap2.o(i._realloc$realtime) refers to h1_alloc.o(.text) for malloc
    heap2.o(i._realloc$realtime) refers to fdtree.o(i._FDTree_Delete) for _FDTree_Delete
    heap2.o(i._realloc$realtime) refers to rt_memcpy_w.o(.text) for __aeabi_memcpy4
    heap2mt.o(i._FDIterate) refers to heap2mt.o(.conststring) for .conststring
    heap2mt.o(i.___Heap_Initialize$realtime$concurrent) refers to mutex_dummy.o(.text) for _mutex_initialize
    heap2mt.o(i.___Heap_ProvideMemory$realtime$concurrent) refers to fdtree.o(i._FDTree_Delete) for _FDTree_Delete
    heap2mt.o(i.___Heap_ProvideMemory$realtime$concurrent) refers to fdtree.o(i._FDTree_Insert) for _FDTree_Insert
    heap2mt.o(i.___Heap_Stats$realtime$concurrent) refers to heap2mt.o(i._Heap2_StatsIterate) for _Heap2_StatsIterate
    heap2mt.o(i.___Heap_Valid$realtime$concurrent) refers to heap2mt.o(i._FDIterate) for _FDIterate
    heap2mt.o(i.___Heap_Valid$realtime$concurrent) refers to heap2mt.o(.conststring) for .conststring
    heap2mt.o(i._free$realtime$concurrent) refers to rt_heap_descriptor_intlibspace.o(.text) for __rt_heap_descriptor
    heap2mt.o(i._free$realtime$concurrent) refers to fdtree.o(i._FDTree_Delete) for _FDTree_Delete
    heap2mt.o(i._free$realtime$concurrent) refers to fdtree.o(i._FDTree_Insert) for _FDTree_Insert
    heap2mt.o(i._malloc$realtime$concurrent) refers to rt_heap_descriptor_intlibspace.o(.text) for __rt_heap_descriptor
    heap2mt.o(i._malloc$realtime$concurrent) refers to fdtree.o(i._FDTree_FindFirst) for _FDTree_FindFirst
    heap2mt.o(i._malloc$realtime$concurrent) refers to init_alloc.o(.text) for __Heap_Full
    heap2mt.o(i._malloc$realtime$concurrent) refers to fdtree.o(i._FDTree_RemoveNode) for _FDTree_RemoveNode
    heap2mt.o(i._malloc$realtime$concurrent) refers to fdtree.o(i._FDTree_Insert) for _FDTree_Insert
    heap2mt.o(i._posix_memalign$realtime$concurrent) refers to rt_heap_descriptor_intlibspace.o(.text) for __rt_heap_descriptor
    heap2mt.o(i._posix_memalign$realtime$concurrent) refers to fdtree.o(i._FDTree_FindFirst) for _FDTree_FindFirst
    heap2mt.o(i._posix_memalign$realtime$concurrent) refers to init_alloc.o(.text) for __Heap_Full
    heap2mt.o(i._posix_memalign$realtime$concurrent) refers to fdtree.o(i._FDTree_RemoveNode) for _FDTree_RemoveNode
    heap2mt.o(i._posix_memalign$realtime$concurrent) refers to fdtree.o(i._FDTree_Insert) for _FDTree_Insert
    heap2mt.o(i._realloc$realtime$concurrent) refers to rt_heap_descriptor_intlibspace.o(.text) for __rt_heap_descriptor
    heap2mt.o(i._realloc$realtime$concurrent) refers to fdtree.o(i._FDTree_Insert) for _FDTree_Insert
    heap2mt.o(i._realloc$realtime$concurrent) refers to h1_free.o(.text) for free
    heap2mt.o(i._realloc$realtime$concurrent) refers to h1_alloc.o(.text) for malloc
    heap2mt.o(i._realloc$realtime$concurrent) refers to fdtree.o(i._FDTree_Delete) for _FDTree_Delete
    heap2mt.o(i._realloc$realtime$concurrent) refers to rt_memcpy_w.o(.text) for __aeabi_memcpy4
    __2printf.o(.text) refers to _printf_char_file.o(.text) for _printf_char_file
    __2printf.o(.text) refers to board.o(.data) for __stdout
    noretval__2printf.o(.text) refers to _printf_char_file.o(.text) for _printf_char_file
    noretval__2printf.o(.text) refers to board.o(.data) for __stdout
    __printf.o(.text) refers to _printf_percent.o(.ARM.Collect$$_printf_percent$$00000000) for _printf_percent
    _printf_str.o(.text) refers (Special) to _printf_char.o(.text) for _printf_cs_common
    _printf_dec.o(.text) refers to _printf_intcommon.o(.text) for _printf_int_common
    __printf_flags.o(.text) refers to _printf_percent.o(.ARM.Collect$$_printf_percent$$00000000) for _printf_percent
    __printf_flags.o(.text) refers to __printf_flags.o(.constdata) for .constdata
    __printf_ss.o(.text) refers to _printf_percent.o(.ARM.Collect$$_printf_percent$$00000000) for _printf_percent
    __printf_flags_ss.o(.text) refers to _printf_percent.o(.ARM.Collect$$_printf_percent$$00000000) for _printf_percent
    __printf_flags_ss.o(.text) refers to __printf_flags_ss.o(.constdata) for .constdata
    __printf_wp.o(.text) refers to __printf_wp.o(i._is_digit) for _is_digit
    __printf_wp.o(.text) refers to _printf_percent.o(.ARM.Collect$$_printf_percent$$00000000) for _printf_percent
    __printf_flags_wp.o(.text) refers to __printf_wp.o(i._is_digit) for _is_digit
    __printf_flags_wp.o(.text) refers to _printf_percent.o(.ARM.Collect$$_printf_percent$$00000000) for _printf_percent
    __printf_flags_wp.o(.text) refers to __printf_flags_wp.o(.constdata) for .constdata
    __printf_ss_wp.o(.text) refers to __printf_wp.o(i._is_digit) for _is_digit
    __printf_ss_wp.o(.text) refers to _printf_percent.o(.ARM.Collect$$_printf_percent$$00000000) for _printf_percent
    __printf_flags_ss_wp.o(.text) refers to __printf_wp.o(i._is_digit) for _is_digit
    __printf_flags_ss_wp.o(.text) refers to _printf_percent.o(.ARM.Collect$$_printf_percent$$00000000) for _printf_percent
    __printf_flags_ss_wp.o(.text) refers to __printf_flags_ss_wp.o(.constdata) for .constdata
    _printf_s.o(.ARM.Collect$$_printf_percent$$00000014) refers (Weak) to _printf_char.o(.text) for _printf_string
    _printf_d.o(.ARM.Collect$$_printf_percent$$00000009) refers (Weak) to _printf_dec.o(.text) for _printf_int_dec
    _printf_percent.o(.ARM.Collect$$_printf_percent$$00000000) refers (Special) to _printf_percent_end.o(.ARM.Collect$$_printf_percent$$00000017) for _printf_percent_end
    rt_memcpy_v6.o(.text) refers to rt_memcpy_w.o(.text) for __aeabi_memcpy4
    aeabi_memset.o(.text) refers to rt_memclr.o(.text) for _memset
    __main.o(!!!main) refers to __rtentry.o(.ARM.Collect$$rtentry$$00000000) for __rt_entry
    __rtentry.o(.ARM.Collect$$rtentry$$00000000) refers (Special) to __rtentry2.o(.ARM.Collect$$rtentry$$0000000A) for __rt_entry_li
    __rtentry.o(.ARM.Collect$$rtentry$$00000000) refers (Special) to __rtentry2.o(.ARM.Collect$$rtentry$$0000000D) for __rt_entry_main
    __rtentry.o(.ARM.Collect$$rtentry$$00000000) refers (Special) to __rtentry2.o(.ARM.Collect$$rtentry$$0000000C) for __rt_entry_postli_1
    __rtentry.o(.ARM.Collect$$rtentry$$00000000) refers (Special) to __rtentry2.o(.ARM.Collect$$rtentry$$00000009) for __rt_entry_postsh_1
    __rtentry.o(.ARM.Collect$$rtentry$$00000000) refers (Special) to __rtentry2.o(.ARM.Collect$$rtentry$$00000002) for __rt_entry_presh_1
    __rtentry.o(.ARM.Collect$$rtentry$$00000000) refers (Special) to __rtentry4.o(.ARM.Collect$$rtentry$$00000004) for __rt_entry_sh
    aeabi_ldiv0_sigfpe.o(.text) refers to rt_div0.o(.text) for __rt_div0
    rt_heap_descriptor.o(.text) refers to rt_heap_descriptor.o(.bss) for __rt_heap_descriptor_data
    rt_heap_descriptor_intlibspace.o(.text) refers to libspace.o(.bss) for __libspace_start
    init_alloc.o(.text) refers (Special) to hguard.o(.text) for __heap$guard
    init_alloc.o(.text) refers (Special) to libinit2.o(.ARM.Collect$$libinit$$00000005) for __rt_lib_init_heap_2
    init_alloc.o(.text) refers (Special) to maybetermalloc1.o(.emb_text) for _maybe_terminate_alloc
    init_alloc.o(.text) refers to h1_extend.o(.text) for __Heap_ProvideMemory
    init_alloc.o(.text) refers to defsig_rtmem_outer.o(.text) for __rt_SIGRTMEM
    init_alloc.o(.text) refers to rt_heap_descriptor_intlibspace.o(.text) for __rt_heap_descriptor
    init_alloc.o(.text) refers to h1_init.o(.text) for __Heap_Initialize
    h1_init_mt.o(.text) refers to mutex_dummy.o(.text) for _mutex_initialize
    _printf_char.o(.text) refers (Weak) to _printf_str.o(.text) for _printf_str
    _printf_char_file.o(.text) refers to _printf_char_common.o(.text) for _printf_char_common
    _printf_char_file.o(.text) refers to board.o(i.ferror) for ferror
    _printf_char_file.o(.text) refers to board.o(i.fputc) for fputc
    rt_memclr.o(.text) refers to rt_memclr_w.o(.text) for _memset_w
    _get_argv.o(.text) refers (Special) to hrguard.o(.text) for __heap_region$guard
    _get_argv.o(.text) refers to h1_alloc.o(.text) for malloc
    _get_argv.o(.text) refers to defsig_rtmem_outer.o(.text) for __rt_SIGRTMEM
    _get_argv.o(.text) refers to sys_command.o(.text) for _sys_command_string
    libinit2.o(.ARM.Collect$$libinit$$00000005) refers (Weak) to init_alloc.o(.text) for _init_alloc
    libinit2.o(.ARM.Collect$$libinit$$00000010) refers to libinit2.o(.ARM.Collect$$libinit$$0000000F) for .ARM.Collect$$libinit$$0000000F
    libinit2.o(.ARM.Collect$$libinit$$00000012) refers to libinit2.o(.ARM.Collect$$libinit$$0000000F) for .ARM.Collect$$libinit$$0000000F
    libinit2.o(.ARM.Collect$$libinit$$00000014) refers to libinit2.o(.ARM.Collect$$libinit$$0000000F) for .ARM.Collect$$libinit$$0000000F
    libinit2.o(.ARM.Collect$$libinit$$00000016) refers to libinit2.o(.ARM.Collect$$libinit$$0000000F) for .ARM.Collect$$libinit$$0000000F
    libinit2.o(.ARM.Collect$$libinit$$00000018) refers to libinit2.o(.ARM.Collect$$libinit$$0000000F) for .ARM.Collect$$libinit$$0000000F
    libinit2.o(.ARM.Collect$$libinit$$00000026) refers to argv_veneer.o(.emb_text) for __ARM_argv_veneer
    libinit2.o(.ARM.Collect$$libinit$$00000027) refers to argv_veneer.o(.emb_text) for __ARM_argv_veneer
    sys_command.o(.text) refers (Special) to use_no_semi.o(.text) for __I$use$semihosting
    sys_command.o(.text) refers (Special) to indicate_semi.o(.text) for __semihosting_library_function
    libspace.o(.text) refers to libspace.o(.bss) for __libspace_start
    __rtentry2.o(.ARM.Collect$$rtentry$$00000008) refers to boardinit2.o(.text) for _platform_post_stackheap_init
    __rtentry2.o(.ARM.Collect$$rtentry$$0000000A) refers to libinit.o(.ARM.Collect$$libinit$$00000000) for __rt_lib_init
    __rtentry2.o(.ARM.Collect$$rtentry$$0000000B) refers to boardinit3.o(.text) for _platform_post_lib_init
    __rtentry2.o(.ARM.Collect$$rtentry$$0000000D) refers to lwip_tcpecho_freertos.o(i.main) for main
    __rtentry2.o(.ARM.Collect$$rtentry$$0000000D) refers to exit.o(.text) for exit
    __rtentry2.o(.ARM.exidx) refers to __rtentry2.o(.ARM.Collect$$rtentry$$00000001) for .ARM.Collect$$rtentry$$00000001
    __rtentry2.o(.ARM.exidx) refers to __rtentry2.o(.ARM.Collect$$rtentry$$00000008) for .ARM.Collect$$rtentry$$00000008
    __rtentry2.o(.ARM.exidx) refers to __rtentry2.o(.ARM.Collect$$rtentry$$0000000A) for .ARM.Collect$$rtentry$$0000000A
    __rtentry2.o(.ARM.exidx) refers to __rtentry2.o(.ARM.Collect$$rtentry$$0000000B) for .ARM.Collect$$rtentry$$0000000B
    __rtentry2.o(.ARM.exidx) refers to __rtentry2.o(.ARM.Collect$$rtentry$$0000000D) for .ARM.Collect$$rtentry$$0000000D
    __rtentry4.o(.ARM.Collect$$rtentry$$00000004) refers to sys_stackheap_outer.o(.text) for __user_setup_stackheap
    __rtentry4.o(.ARM.exidx) refers to __rtentry4.o(.ARM.Collect$$rtentry$$00000004) for .ARM.Collect$$rtentry$$00000004
    rt_div0.o(.text) refers to defsig_fpe_outer.o(.text) for __rt_SIGFPE
    maybetermalloc2.o(.emb_text) refers (Special) to term_alloc.o(.text) for _terminate_alloc
    h1_extend.o(.text) refers to h1_free.o(.text) for free
    h1_extend_mt.o(.text) refers to h1_free_mt.o(.text) for _free_internal
    _printf_char_common.o(.text) refers to __printf.o(.text) for __printf
    defsig_rtmem_outer.o(.text) refers to defsig_rtmem_inner.o(.text) for __rt_SIGRTMEM_inner
    defsig_rtmem_outer.o(.text) refers to defsig_exit.o(.text) for __sig_exit
    defsig_rtmem_formal.o(.text) refers to rt_raise.o(.text) for __rt_raise
    heapauxa.o(.text) refers to heapauxa.o(.data) for .data
    argv_veneer.o(.emb_text) refers to no_argv.o(.text) for __ARM_get_argv
    sys_stackheap_outer.o(.text) refers to libspace.o(.text) for __user_perproc_libspace
    sys_stackheap_outer.o(.text) refers to keil_startup_lpc17xx_40xx.o(.text) for __user_initial_stackheap
    rt_raise.o(.text) refers to __raise.o(.text) for __raise
    rt_raise.o(.text) refers to board.o(i._sys_exit) for _sys_exit
    term_alloc.o(.text) refers (Special) to libshutdown2.o(.ARM.Collect$$libshutdown$$0000000E) for __rt_lib_shutdown_heap_2
    term_alloc.o(.text) refers to rt_heap_descriptor_intlibspace.o(.text) for __rt_heap_descriptor
    term_alloc.o(.text) refers to h1_final.o(.text) for __Heap_Finalize
    exit.o(.text) refers to rtexit.o(.ARM.Collect$$rtexit$$00000000) for __rt_exit
    defsig_exit.o(.text) refers to board.o(i._sys_exit) for _sys_exit
    defsig_fpe_outer.o(.text) refers to defsig_fpe_inner.o(.text) for __rt_SIGFPE_inner
    defsig_fpe_outer.o(.text) refers to defsig_exit.o(.text) for __sig_exit
    defsig_fpe_formal.o(.text) refers to rt_raise.o(.text) for __rt_raise
    defsig_rtmem_inner.o(.text) refers to defsig_general.o(.text) for __default_signal_display
    _get_argv_nomalloc.o(.text) refers (Special) to hrguard.o(.text) for __heap_region$guard
    _get_argv_nomalloc.o(.text) refers to defsig_rtmem_outer.o(.text) for __rt_SIGRTMEM
    _get_argv_nomalloc.o(.text) refers to sys_command.o(.text) for _sys_command_string
    libinit.o(.ARM.Collect$$libinit$$00000000) refers (Special) to libinit2.o(.ARM.Collect$$libinit$$0000002E) for __rt_lib_init_alloca_1
    libinit.o(.ARM.Collect$$libinit$$00000000) refers (Special) to libinit2.o(.ARM.Collect$$libinit$$0000002C) for __rt_lib_init_argv_1
    libinit.o(.ARM.Collect$$libinit$$00000000) refers (Special) to libinit2.o(.ARM.Collect$$libinit$$0000001B) for __rt_lib_init_atexit_1
    libinit.o(.ARM.Collect$$libinit$$00000000) refers (Special) to libinit2.o(.ARM.Collect$$libinit$$00000021) for __rt_lib_init_clock_1
    libinit.o(.ARM.Collect$$libinit$$00000000) refers (Special) to libinit2.o(.ARM.Collect$$libinit$$00000032) for __rt_lib_init_cpp_1
    libinit.o(.ARM.Collect$$libinit$$00000000) refers (Special) to libinit2.o(.ARM.Collect$$libinit$$00000030) for __rt_lib_init_exceptions_1
    libinit.o(.ARM.Collect$$libinit$$00000000) refers (Special) to libinit2.o(.ARM.Collect$$libinit$$00000002) for __rt_lib_init_fp_1
    libinit.o(.ARM.Collect$$libinit$$00000000) refers (Special) to libinit2.o(.ARM.Collect$$libinit$$0000001F) for __rt_lib_init_fp_trap_1
    libinit.o(.ARM.Collect$$libinit$$00000000) refers (Special) to libinit2.o(.ARM.Collect$$libinit$$00000023) for __rt_lib_init_getenv_1
    libinit.o(.ARM.Collect$$libinit$$00000000) refers (Special) to libinit2.o(.ARM.Collect$$libinit$$0000000A) for __rt_lib_init_heap_1
    libinit.o(.ARM.Collect$$libinit$$00000000) refers (Special) to libinit2.o(.ARM.Collect$$libinit$$00000011) for __rt_lib_init_lc_collate_1
    libinit.o(.ARM.Collect$$libinit$$00000000) refers (Special) to libinit2.o(.ARM.Collect$$libinit$$00000013) for __rt_lib_init_lc_ctype_1
    libinit.o(.ARM.Collect$$libinit$$00000000) refers (Special) to libinit2.o(.ARM.Collect$$libinit$$00000015) for __rt_lib_init_lc_monetary_1
    libinit.o(.ARM.Collect$$libinit$$00000000) refers (Special) to libinit2.o(.ARM.Collect$$libinit$$00000017) for __rt_lib_init_lc_numeric_1
    libinit.o(.ARM.Collect$$libinit$$00000000) refers (Special) to libinit2.o(.ARM.Collect$$libinit$$00000019) for __rt_lib_init_lc_time_1
    libinit.o(.ARM.Collect$$libinit$$00000000) refers (Special) to libinit2.o(.ARM.Collect$$libinit$$00000004) for __rt_lib_init_preinit_1
    libinit.o(.ARM.Collect$$libinit$$00000000) refers (Special) to libinit2.o(.ARM.Collect$$libinit$$0000000E) for __rt_lib_init_rand_1
    libinit.o(.ARM.Collect$$libinit$$00000000) refers (Special) to libinit2.o(.ARM.Collect$$libinit$$00000033) for __rt_lib_init_return
    libinit.o(.ARM.Collect$$libinit$$00000000) refers (Special) to libinit2.o(.ARM.Collect$$libinit$$0000001D) for __rt_lib_init_signal_1
    libinit.o(.ARM.Collect$$libinit$$00000000) refers (Special) to libinit2.o(.ARM.Collect$$libinit$$00000025) for __rt_lib_init_stdio_1
    libinit.o(.ARM.Collect$$libinit$$00000000) refers (Special) to libinit2.o(.ARM.Collect$$libinit$$0000000C) for __rt_lib_init_user_alloc_1
    rtexit.o(.ARM.Collect$$rtexit$$00000000) refers (Special) to rtexit2.o(.ARM.Collect$$rtexit$$00000004) for __rt_exit_exit
    rtexit.o(.ARM.Collect$$rtexit$$00000000) refers (Special) to rtexit2.o(.ARM.Collect$$rtexit$$00000003) for __rt_exit_ls
    rtexit.o(.ARM.Collect$$rtexit$$00000000) refers (Special) to rtexit2.o(.ARM.Collect$$rtexit$$00000002) for __rt_exit_prels_1
    rtexit.o(.ARM.exidx) refers (Special) to rtexit2.o(.ARM.Collect$$rtexit$$00000004) for __rt_exit_exit
    rtexit.o(.ARM.exidx) refers (Special) to rtexit2.o(.ARM.Collect$$rtexit$$00000003) for __rt_exit_ls
    rtexit.o(.ARM.exidx) refers (Special) to rtexit2.o(.ARM.Collect$$rtexit$$00000002) for __rt_exit_prels_1
    rtexit.o(.ARM.exidx) refers to rtexit.o(.ARM.Collect$$rtexit$$00000000) for .ARM.Collect$$rtexit$$00000000
    __raise.o(.text) refers to defsig.o(CL$$defsig) for __default_signal_handler
    defsig_general.o(.text) refers to sys_wrch.o(.text) for _ttywrch
    defsig_fpe_inner.o(.text) refers to defsig_general.o(.text) for __default_signal_display
    libshutdown2.o(.ARM.Collect$$libshutdown$$0000000D) refers (Weak) to term_alloc.o(.text) for _terminate_alloc
    sys_wrch.o(.text) refers (Special) to use_no_semi.o(.text) for __I$use$semihosting
    sys_wrch.o(.text) refers (Special) to indicate_semi.o(.text) for __semihosting_library_function
    rtexit2.o(.ARM.Collect$$rtexit$$00000003) refers to libshutdown.o(.ARM.Collect$$libshutdown$$00000000) for __rt_lib_shutdown
    rtexit2.o(.ARM.Collect$$rtexit$$00000004) refers to board.o(i._sys_exit) for _sys_exit
    rtexit2.o(.ARM.exidx) refers to rtexit2.o(.ARM.Collect$$rtexit$$00000001) for .ARM.Collect$$rtexit$$00000001
    rtexit2.o(.ARM.exidx) refers to rtexit2.o(.ARM.Collect$$rtexit$$00000003) for .ARM.Collect$$rtexit$$00000003
    rtexit2.o(.ARM.exidx) refers to rtexit2.o(.ARM.Collect$$rtexit$$00000004) for .ARM.Collect$$rtexit$$00000004
    defsig.o(CL$$defsig) refers to defsig_fpe_inner.o(.text) for __rt_SIGFPE_inner
    defsig.o(CL$$defsig) refers to defsig_rtmem_inner.o(.text) for __rt_SIGRTMEM_inner
    defsig_abrt_inner.o(.text) refers to defsig_general.o(.text) for __default_signal_display
    defsig_rtred_inner.o(.text) refers to defsig_general.o(.text) for __default_signal_display
    defsig_stak_inner.o(.text) refers to defsig_general.o(.text) for __default_signal_display
    defsig_pvfn_inner.o(.text) refers to defsig_general.o(.text) for __default_signal_display
    defsig_cppl_inner.o(.text) refers to defsig_general.o(.text) for __default_signal_display
    defsig_segv_inner.o(.text) refers to defsig_general.o(.text) for __default_signal_display
    defsig_other.o(.text) refers to defsig_general.o(.text) for __default_signal_display
    libshutdown.o(.ARM.Collect$$libshutdown$$00000000) refers (Special) to libshutdown2.o(.ARM.Collect$$libshutdown$$00000002) for __rt_lib_shutdown_cpp_1
    libshutdown.o(.ARM.Collect$$libshutdown$$00000000) refers (Special) to libshutdown2.o(.ARM.Collect$$libshutdown$$00000007) for __rt_lib_shutdown_fp_trap_1
    libshutdown.o(.ARM.Collect$$libshutdown$$00000000) refers (Special) to libshutdown2.o(.ARM.Collect$$libshutdown$$0000000F) for __rt_lib_shutdown_heap_1
    libshutdown.o(.ARM.Collect$$libshutdown$$00000000) refers (Special) to libshutdown2.o(.ARM.Collect$$libshutdown$$00000010) for __rt_lib_shutdown_return
    libshutdown.o(.ARM.Collect$$libshutdown$$00000000) refers (Special) to libshutdown2.o(.ARM.Collect$$libshutdown$$0000000A) for __rt_lib_shutdown_signal_1
    libshutdown.o(.ARM.Collect$$libshutdown$$00000000) refers (Special) to libshutdown2.o(.ARM.Collect$$libshutdown$$00000004) for __rt_lib_shutdown_stdio_1
    libshutdown.o(.ARM.Collect$$libshutdown$$00000000) refers (Special) to libshutdown2.o(.ARM.Collect$$libshutdown$$0000000C) for __rt_lib_shutdown_user_alloc_1


==============================================================================

Removing Unused input sections from the image.

    Removing tcpecho.o(.rev16_text), (4 bytes).
    Removing tcpecho.o(.revsh_text), (4 bytes).
    Removing lwip_tcpecho_freertos.o(.rev16_text), (4 bytes).
    Removing lwip_tcpecho_freertos.o(.revsh_text), (4 bytes).
    Removing sysinit.o(.rev16_text), (4 bytes).
    Removing sysinit.o(.revsh_text), (4 bytes).
    Removing port.o(.rev16_text), (4 bytes).
    Removing port.o(.revsh_text), (4 bytes).
    Removing port.o(i.vPortEndScheduler), (2 bytes).
    Removing heap_3.o(.rev16_text), (4 bytes).
    Removing heap_3.o(.revsh_text), (4 bytes).
    Removing croutine.o(.rev16_text), (4 bytes).
    Removing croutine.o(.revsh_text), (4 bytes).
    Removing croutine.o(i.prvCheckDelayedList), (132 bytes).
    Removing croutine.o(i.vCoRoutineAddToDelayedList), (64 bytes).
    Removing croutine.o(i.vCoRoutineSchedule), (156 bytes).
    Removing croutine.o(i.xCoRoutineCreate), (176 bytes).
    Removing croutine.o(i.xCoRoutineRemoveFromEventList), (52 bytes).
    Removing croutine.o(.bss), (100 bytes).
    Removing croutine.o(.data), (28 bytes).
    Removing queue.o(.rev16_text), (4 bytes).
    Removing queue.o(.revsh_text), (4 bytes).
    Removing queue.o(i.ucQueueGetQueueNumber), (6 bytes).
    Removing queue.o(i.ucQueueGetQueueType), (6 bytes).
    Removing queue.o(i.uxQueueMessagesWaitingFromISR), (4 bytes).
    Removing queue.o(i.uxQueueSpacesAvailable), (22 bytes).
    Removing queue.o(i.vQueueAddToRegistry), (40 bytes).
    Removing queue.o(i.vQueueSetQueueNumber), (6 bytes).
    Removing queue.o(i.xQueueGiveMutexRecursive), (42 bytes).
    Removing queue.o(i.xQueueIsQueueEmptyFromISR), (12 bytes).
    Removing queue.o(i.xQueueIsQueueFullFromISR), (16 bytes).
    Removing queue.o(i.xQueuePeekFromISR), (48 bytes).
    Removing queue.o(i.xQueueReceiveFromISR), (92 bytes).
    Removing queue.o(i.xQueueTakeMutexRecursive), (50 bytes).
    Removing list.o(.rev16_text), (4 bytes).
    Removing list.o(.revsh_text), (4 bytes).
    Removing tasks.o(.rev16_text), (4 bytes).
    Removing tasks.o(.revsh_text), (4 bytes).
    Removing tasks.o(i.prvListTaskWithinSingleList), (112 bytes).
    Removing tasks.o(i.prvTaskCheckFreeStackSpace), (20 bytes).
    Removing tasks.o(i.uxTaskGetNumberOfTasks), (12 bytes).
    Removing tasks.o(i.uxTaskGetStackHighWaterMark), (16 bytes).
    Removing tasks.o(i.uxTaskGetSystemState), (148 bytes).
    Removing tasks.o(i.uxTaskGetTaskNumber), (8 bytes).
    Removing tasks.o(i.uxTaskPriorityGet), (28 bytes).
    Removing tasks.o(i.vTaskDelayUntil), (80 bytes).
    Removing tasks.o(i.vTaskDelete), (88 bytes).
    Removing tasks.o(i.vTaskEndScheduler), (24 bytes).
    Removing tasks.o(i.vTaskPrioritySet), (144 bytes).
    Removing tasks.o(i.vTaskResume), (92 bytes).
    Removing tasks.o(i.vTaskSetTaskNumber), (8 bytes).
    Removing tasks.o(i.vTaskSuspend), (96 bytes).
    Removing tasks.o(i.xTaskGetTickCountFromISR), (24 bytes).
    Removing tasks.o(i.xTaskIsTaskSuspended), (32 bytes).
    Removing tasks.o(i.xTaskResumeFromISR), (104 bytes).
    Removing freertoscommonhooks.o(.rev16_text), (4 bytes).
    Removing freertoscommonhooks.o(.revsh_text), (4 bytes).
    Removing freertoscommonhooks.o(i.FreeRTOSDelay), (20 bytes).
    Removing freertoscommonhooks.o(i.vApplicationTickHook), (2 bytes).
    Removing udp.o(i.udp_disconnect), (16 bytes).
    Removing udp.o(i.udp_send), (18 bytes).
    Removing udp.o(i.udp_send_chksum), (16 bytes).
    Removing udp.o(i.udp_sendto), (14 bytes).
    Removing udp.o(i.udp_sendto_chksum), (52 bytes).
    Removing timers.o(.rev16_text), (4 bytes).
    Removing timers.o(.revsh_text), (4 bytes).
    Removing tcp.o(i.tcp_connect), (248 bytes).
    Removing tcp.o(i.tcp_debug_state_str), (12 bytes).
    Removing tcp.o(i.tcp_setprio), (4 bytes).
    Removing sys.o(.rev16_text), (4 bytes).
    Removing sys.o(.revsh_text), (4 bytes).
    Removing sys.o(i.sys_msleep), (34 bytes).
    Removing pbuf.o(.rev16_text), (4 bytes).
    Removing pbuf.o(.revsh_text), (4 bytes).
    Removing pbuf.o(i.pbuf_coalesce), (50 bytes).
    Removing pbuf.o(i.pbuf_dechain), (72 bytes).
    Removing pbuf.o(i.pbuf_fill_chksum), (94 bytes).
    Removing pbuf.o(i.pbuf_get_at), (24 bytes).
    Removing pbuf.o(i.pbuf_memcmp), (68 bytes).
    Removing pbuf.o(i.pbuf_memfind), (60 bytes).
    Removing pbuf.o(i.pbuf_strstr), (56 bytes).
    Removing pbuf.o(i.pbuf_take), (94 bytes).
    Removing netif.o(i.netif_find), (64 bytes).
    Removing netif.o(i.netif_remove), (72 bytes).
    Removing memp.o(.rev16_text), (4 bytes).
    Removing memp.o(.revsh_text), (4 bytes).
    Removing init.o(.rev16_text), (4 bytes).
    Removing init.o(.revsh_text), (4 bytes).
    Removing dhcp.o(i.dhcp_cleanup), (26 bytes).
    Removing dhcp.o(i.dhcp_inform), (160 bytes).
    Removing dhcp.o(i.dhcp_set_struct), (38 bytes).
    Removing ip_addr.o(i.ip4_addr_netmask_valid), (38 bytes).
    Removing ip_addr.o(i.ipaddr_addr), (20 bytes).
    Removing ip_addr.o(i.ipaddr_aton), (256 bytes).
    Removing ip_addr.o(i.ipaddr_ntoa), (12 bytes).
    Removing ip_addr.o(.bss), (16 bytes).
    Removing etharp.o(i.etharp_find_addr), (68 bytes).
    Removing tcpip.o(.rev16_text), (4 bytes).
    Removing tcpip.o(.revsh_text), (4 bytes).
    Removing tcpip.o(i.mem_free_callback), (16 bytes).
    Removing tcpip.o(i.pbuf_free_callback), (16 bytes).
    Removing tcpip.o(i.pbuf_free_int), (4 bytes).
    Removing tcpip.o(i.tcpip_callbackmsg_delete), (4 bytes).
    Removing tcpip.o(i.tcpip_callbackmsg_new), (32 bytes).
    Removing tcpip.o(i.tcpip_timeout), (68 bytes).
    Removing tcpip.o(i.tcpip_trycallback), (28 bytes).
    Removing tcpip.o(i.tcpip_untimeout), (64 bytes).
    Removing api_msg.o(.rev16_text), (4 bytes).
    Removing api_msg.o(.revsh_text), (4 bytes).
    Removing api_msg.o(i.do_connect), (136 bytes).
    Removing api_msg.o(i.do_connected), (128 bytes).
    Removing api_msg.o(i.do_disconnect), (42 bytes).
    Removing api_msg.o(i.do_getaddr), (108 bytes).
    Removing api_msg.o(i.do_send), (108 bytes).
    Removing api_lib.o(.rev16_text), (4 bytes).
    Removing api_lib.o(.revsh_text), (4 bytes).
    Removing api_lib.o(i.netconn_connect), (68 bytes).
    Removing api_lib.o(i.netconn_disconnect), (64 bytes).
    Removing api_lib.o(i.netconn_getaddr), (76 bytes).
    Removing api_lib.o(i.netconn_recv_tcp_pbuf), (28 bytes).
    Removing api_lib.o(i.netconn_recved), (44 bytes).
    Removing api_lib.o(i.netconn_send), (64 bytes).
    Removing api_lib.o(i.netconn_sendto), (20 bytes).
    Removing api_lib.o(i.netconn_shutdown), (14 bytes).
    Removing sys_arch_freertos.o(.rev16_text), (4 bytes).
    Removing sys_arch_freertos.o(.revsh_text), (4 bytes).
    Removing sys_arch_freertos.o(i.sys_assert), (2 bytes).
    Removing sys_arch_freertos.o(i.sys_mutex_free), (6 bytes).
    Removing sys_arch_freertos.o(i.sys_now), (4 bytes).
    Removing lpc17xx_40xx_emac.o(.rev16_text), (4 bytes).
    Removing lpc17xx_40xx_emac.o(.revsh_text), (4 bytes).
    Removing lpc17xx_40xx_emac.o(i.lpc_emac_set_duplex), (18 bytes).
    Removing lpc17xx_40xx_emac.o(i.lpc_emac_set_speed), (14 bytes).
    Removing netbuf.o(i.netbuf_alloc), (58 bytes).
    Removing netbuf.o(i.netbuf_chain), (40 bytes).
    Removing netbuf.o(i.netbuf_first), (12 bytes).
    Removing netbuf.o(i.netbuf_free), (30 bytes).
    Removing netbuf.o(i.netbuf_new), (36 bytes).
    Removing netbuf.o(i.netbuf_ref), (68 bytes).
    Removing lpc_phy_smsc87x0.o(.rev16_text), (4 bytes).
    Removing lpc_phy_smsc87x0.o(.revsh_text), (4 bytes).
    Removing board.o(.rev16_text), (4 bytes).
    Removing board.o(.revsh_text), (4 bytes).
    Removing board.o(i.Board_Audio_Init), (38 bytes).
    Removing board.o(i.Board_Buttons_Init), (16 bytes).
    Removing board.o(i.Board_I2C_Init), (152 bytes).
    Removing board.o(i.Board_Joystick_Init), (40 bytes).
    Removing board.o(i.Board_LED_Test), (24 bytes).
    Removing board.o(i.Board_LED_Toggle), (26 bytes).
    Removing board.o(i.Board_SPI_AssertSSEL), (16 bytes).
    Removing board.o(i.Board_SPI_DeassertSSEL), (16 bytes).
    Removing board.o(i.Board_SPI_Init), (112 bytes).
    Removing board.o(i.Board_SSP_Init), (128 bytes).
    Removing board.o(i.Board_UARTGetChar), (24 bytes).
    Removing board.o(i.Board_UART_Init), (2 bytes).
    Removing board.o(i.Board_USBD_Init), (60 bytes).
    Removing board.o(i.Buttons_GetStatus), (28 bytes).
    Removing board.o(i.Chip_GPIO_ReadPortBit), (16 bytes).
    Removing board.o(i.Chip_IOCON_EnableOD), (16 bytes).
    Removing board.o(i.Joystick_GetStatus), (56 bytes).
    Removing board.o(i.Serial_CreateStream), (2 bytes).
    Removing board.o(i._sys_open), (4 bytes).
    Removing board.o(i.fgetc), (4 bytes).
    Removing board.o(.constdata), (15 bytes).
    Removing board.o(.data), (4 bytes).
    Removing board.o(.data), (4 bytes).
    Removing board_sysinit.o(.rev16_text), (4 bytes).
    Removing board_sysinit.o(.revsh_text), (4 bytes).
    Removing enet_17xx_40xx.o(.rev16_text), (4 bytes).
    Removing enet_17xx_40xx.o(.revsh_text), (4 bytes).
    Removing enet_17xx_40xx.o(i.Chip_ENET_DeInit), (32 bytes).
    Removing enet_17xx_40xx.o(i.Chip_ENET_GetBufferStatus), (30 bytes).
    Removing chip_17xx_40xx.o(.rev16_text), (4 bytes).
    Removing chip_17xx_40xx.o(.revsh_text), (4 bytes).
    Removing chip_17xx_40xx.o(i.Chip_USB_Init), (72 bytes).
    Removing clock_17xx_40xx.o(.rev16_text), (4 bytes).
    Removing clock_17xx_40xx.o(.revsh_text), (4 bytes).
    Removing clock_17xx_40xx.o(i.Chip_Clock_DisablePeriphClock), (24 bytes).
    Removing clock_17xx_40xx.o(i.Chip_Clock_GetUSBClockDiv), (20 bytes).
    Removing clock_17xx_40xx.o(i.Chip_Clock_GetUSBClockRate), (44 bytes).
    Removing clock_17xx_40xx.o(i.Chip_Clock_GetUSBPLLOutClockRate), (44 bytes).
    Removing clock_17xx_40xx.o(i.Chip_Clock_IsPeripheralClockEnabled), (28 bytes).
    Removing clock_17xx_40xx.o(i.Chip_Clock_SetCLKOUTSource), (36 bytes).
    Removing clock_17xx_40xx.o(i.Chip_Clock_SetCPUClockSource), (20 bytes).
    Removing clock_17xx_40xx.o(i.Chip_Clock_SetPCLKDiv), (40 bytes).
    Removing clock_17xx_40xx.o(i.Chip_Clock_SetUSBClockDiv), (24 bytes).
    Removing i2s_17xx_40xx.o(.rev16_text), (4 bytes).
    Removing i2s_17xx_40xx.o(.revsh_text), (4 bytes).
    Removing i2s_17xx_40xx.o(i.Chip_I2S_DMA_RxCmd), (40 bytes).
    Removing i2s_17xx_40xx.o(i.Chip_I2S_DMA_TxCmd), (40 bytes).
    Removing i2s_17xx_40xx.o(i.Chip_I2S_DeInit), (30 bytes).
    Removing i2s_17xx_40xx.o(i.Chip_I2S_Init), (6 bytes).
    Removing i2s_17xx_40xx.o(i.Chip_I2S_Int_RxCmd), (36 bytes).
    Removing i2s_17xx_40xx.o(i.Chip_I2S_Int_TxCmd), (36 bytes).
    Removing i2s_17xx_40xx.o(i.Chip_I2S_RxConfig), (108 bytes).
    Removing i2s_17xx_40xx.o(i.Chip_I2S_TxConfig), (108 bytes).
    Removing i2s_17xx_40xx.o(i.getClkDiv), (218 bytes).
    Removing iocon_17xx_40xx.o(.rev16_text), (4 bytes).
    Removing iocon_17xx_40xx.o(.revsh_text), (4 bytes).
    Removing uart_17xx_40xx.o(.rev16_text), (4 bytes).
    Removing uart_17xx_40xx.o(.revsh_text), (4 bytes).
    Removing uart_17xx_40xx.o(i.Chip_UART_ABCmd), (56 bytes).
    Removing uart_17xx_40xx.o(i.Chip_UART_CheckBusy), (14 bytes).
    Removing uart_17xx_40xx.o(i.Chip_UART_DeInit), (18 bytes).
    Removing uart_17xx_40xx.o(i.Chip_UART_GetABEOStatus), (12 bytes).
    Removing uart_17xx_40xx.o(i.Chip_UART_IRQRBHandler), (112 bytes).
    Removing uart_17xx_40xx.o(i.Chip_UART_RXIntHandlerRB), (30 bytes).
    Removing uart_17xx_40xx.o(i.Chip_UART_Read), (28 bytes).
    Removing uart_17xx_40xx.o(i.Chip_UART_ReadBlocking), (36 bytes).
    Removing uart_17xx_40xx.o(i.Chip_UART_ReadRB), (16 bytes).
    Removing uart_17xx_40xx.o(i.Chip_UART_Send), (28 bytes).
    Removing uart_17xx_40xx.o(i.Chip_UART_SendBlocking), (36 bytes).
    Removing uart_17xx_40xx.o(i.Chip_UART_SendRB), (64 bytes).
    Removing uart_17xx_40xx.o(i.Chip_UART_SetBaudFDR), (258 bytes).
    Removing uart_17xx_40xx.o(i.Chip_UART_TXDisable), (6 bytes).
    Removing uart_17xx_40xx.o(i.Chip_UART_TXIntHandlerRB), (34 bytes).
    Removing uart_17xx_40xx.o(.data), (1 bytes).
    Removing sysinit_17xx_40xx.o(.rev16_text), (4 bytes).
    Removing sysinit_17xx_40xx.o(.revsh_text), (4 bytes).
    Removing sysinit_17xx_40xx.o(i.Chip_SetupIrcClocking), (104 bytes).
    Removing sysinit_17xx_40xx.o(i.Chip_SystemInit), (4 bytes).
    Removing ring_buffer.o(i.RingBuffer_Init), (16 bytes).
    Removing ring_buffer.o(i.RingBuffer_Insert), (48 bytes).
    Removing ring_buffer.o(i.RingBuffer_InsertMult), (122 bytes).
    Removing ring_buffer.o(i.RingBuffer_IsEmpty), (16 bytes).
    Removing ring_buffer.o(i.RingBuffer_IsFull), (20 bytes).
    Removing ring_buffer.o(i.RingBuffer_Pop), (48 bytes).
    Removing ring_buffer.o(i.RingBuffer_PopMult), (118 bytes).

228 unused section(s) (total 8558 bytes) removed from the image.

==============================================================================

Image Symbol Table

    Local Symbols

    Symbol Name                              Value     Ov Type        Size  Object(Section)

    RESET                                    0x00000000   Section      204  keil_startup_lpc17xx_40xx.o(RESET)
    ../clib/angel/boardlib.s                 0x00000000   Number         0  boardinit3.o ABSOLUTE
    ../clib/angel/boardlib.s                 0x00000000   Number         0  boardinit2.o ABSOLUTE
    ../clib/angel/boardlib.s                 0x00000000   Number         0  boardinit1.o ABSOLUTE
    ../clib/angel/boardlib.s                 0x00000000   Number         0  boardshut.o ABSOLUTE
    ../clib/angel/handlers.s                 0x00000000   Number         0  __scatter_zi.o ABSOLUTE
    ../clib/angel/handlers.s                 0x00000000   Number         0  __scatter_copy.o ABSOLUTE
    ../clib/angel/kernel.s                   0x00000000   Number         0  __rtentry.o ABSOLUTE
    ../clib/angel/kernel.s                   0x00000000   Number         0  rtexit2.o ABSOLUTE
    ../clib/angel/kernel.s                   0x00000000   Number         0  rtexit.o ABSOLUTE
    ../clib/angel/kernel.s                   0x00000000   Number         0  __rtentry2.o ABSOLUTE
    ../clib/angel/kernel.s                   0x00000000   Number         0  __rtentry4.o ABSOLUTE
    ../clib/angel/rt.s                       0x00000000   Number         0  aeabi_ldiv0_sigfpe.o ABSOLUTE
    ../clib/angel/rt.s                       0x00000000   Number         0  aeabi_ldiv0.o ABSOLUTE
    ../clib/angel/rt.s                       0x00000000   Number         0  rt_raise.o ABSOLUTE
    ../clib/angel/rt.s                       0x00000000   Number         0  rt_div0.o ABSOLUTE
    ../clib/angel/rt.s                       0x00000000   Number         0  rt_heap_descriptor_intlibspace.o ABSOLUTE
    ../clib/angel/rt.s                       0x00000000   Number         0  rt_heap_descriptor.o ABSOLUTE
    ../clib/angel/scatter.s                  0x00000000   Number         0  __scatter.o ABSOLUTE
    ../clib/angel/startup.s                  0x00000000   Number         0  __main.o ABSOLUTE
    ../clib/angel/sys.s                      0x00000000   Number         0  use_no_semi.o ABSOLUTE
    ../clib/angel/sys.s                      0x00000000   Number         0  sys_stackheap_outer.o ABSOLUTE
    ../clib/angel/sys.s                      0x00000000   Number         0  mutex_dummy.o ABSOLUTE
    ../clib/angel/sys.s                      0x00000000   Number         0  libspace.o ABSOLUTE
    ../clib/angel/sys.s                      0x00000000   Number         0  indicate_semi.o ABSOLUTE
    ../clib/angel/sysapp.c                   0x00000000   Number         0  sys_wrch.o ABSOLUTE
    ../clib/angel/sysapp.c                   0x00000000   Number         0  sys_command.o ABSOLUTE
    ../clib/armsys.c                         0x00000000   Number         0  argv_veneer.o ABSOLUTE
    ../clib/armsys.c                         0x00000000   Number         0  argv_veneer.o ABSOLUTE
    ../clib/armsys.c                         0x00000000   Number         0  no_argv.o ABSOLUTE
    ../clib/armsys.c                         0x00000000   Number         0  _get_argv_nomalloc.o ABSOLUTE
    ../clib/armsys.c                         0x00000000   Number         0  _get_argv.o ABSOLUTE
    ../clib/heap1.c                          0x00000000   Number         0  h1_free_mt.o ABSOLUTE
    ../clib/heap1.c                          0x00000000   Number         0  h1_extend.o ABSOLUTE
    ../clib/heap1.c                          0x00000000   Number         0  h1_init.o ABSOLUTE
    ../clib/heap1.c                          0x00000000   Number         0  h1_alloc.o ABSOLUTE
    ../clib/heap1.c                          0x00000000   Number         0  h1_alloc_mt.o ABSOLUTE
    ../clib/heap1.c                          0x00000000   Number         0  h1_extend_mt.o ABSOLUTE
    ../clib/heap1.c                          0x00000000   Number         0  h1_final.o ABSOLUTE
    ../clib/heap1.c                          0x00000000   Number         0  h1_final_mt.o ABSOLUTE
    ../clib/heap1.c                          0x00000000   Number         0  h1_free.o ABSOLUTE
    ../clib/heap1.c                          0x00000000   Number         0  h1_init_mt.o ABSOLUTE
    ../clib/heap2.c                          0x00000000   Number         0  heap2mt.o ABSOLUTE
    ../clib/heap2.c                          0x00000000   Number         0  heap2.o ABSOLUTE
    ../clib/heap2.c                          0x00000000   Number         0  fdtree.o ABSOLUTE
    ../clib/heapalloc.c                      0x00000000   Number         0  maybetermalloc1.o ABSOLUTE
    ../clib/heapalloc.c                      0x00000000   Number         0  hguard.o ABSOLUTE
    ../clib/heapalloc.c                      0x00000000   Number         0  maybetermalloc2.o ABSOLUTE
    ../clib/heapalloc.c                      0x00000000   Number         0  init_alloc.o ABSOLUTE
    ../clib/heapalloc.c                      0x00000000   Number         0  heapstubs.o ABSOLUTE
    ../clib/heapalloc.c                      0x00000000   Number         0  maybetermalloc2.o ABSOLUTE
    ../clib/heapalloc.c                      0x00000000   Number         0  hrguard.o ABSOLUTE
    ../clib/heapalloc.c                      0x00000000   Number         0  free.o ABSOLUTE
    ../clib/heapalloc.c                      0x00000000   Number         0  malloc.o ABSOLUTE
    ../clib/heapalloc.c                      0x00000000   Number         0  term_alloc.o ABSOLUTE
    ../clib/heapalloc.c                      0x00000000   Number         0  maybetermalloc1.o ABSOLUTE
    ../clib/heapaux.c                        0x00000000   Number         0  heapauxi.o ABSOLUTE
    ../clib/heapaux.c                        0x00000000   Number         0  heapauxa.o ABSOLUTE
    ../clib/libinit.s                        0x00000000   Number         0  libshutdown.o ABSOLUTE
    ../clib/libinit.s                        0x00000000   Number         0  libinit.o ABSOLUTE
    ../clib/libinit.s                        0x00000000   Number         0  libshutdown2.o ABSOLUTE
    ../clib/libinit.s                        0x00000000   Number         0  libinit2.o ABSOLUTE
    ../clib/longlong.s                       0x00000000   Number         0  lludivv7m.o ABSOLUTE
    ../clib/memcpset.s                       0x00000000   Number         0  rt_memclr_w.o ABSOLUTE
    ../clib/memcpset.s                       0x00000000   Number         0  rt_memcpy_v6.o ABSOLUTE
    ../clib/memcpset.s                       0x00000000   Number         0  rt_memcpy_w.o ABSOLUTE
    ../clib/memcpset.s                       0x00000000   Number         0  rt_memclr.o ABSOLUTE
    ../clib/memcpset.s                       0x00000000   Number         0  aeabi_memset.o ABSOLUTE
    ../clib/printf.c                         0x00000000   Number         0  __printf.o ABSOLUTE
    ../clib/printf.c                         0x00000000   Number         0  _printf_char.o ABSOLUTE
    ../clib/printf.c                         0x00000000   Number         0  _printf_char_file.o ABSOLUTE
    ../clib/printf.c                         0x00000000   Number         0  noretval__2printf.o ABSOLUTE
    ../clib/printf.c                         0x00000000   Number         0  __printf_flags.o ABSOLUTE
    ../clib/printf.c                         0x00000000   Number         0  _printf_intcommon.o ABSOLUTE
    ../clib/printf.c                         0x00000000   Number         0  __printf_ss.o ABSOLUTE
    ../clib/printf.c                         0x00000000   Number         0  __printf_flags_ss_wp.o ABSOLUTE
    ../clib/printf.c                         0x00000000   Number         0  __printf_ss_wp.o ABSOLUTE
    ../clib/printf.c                         0x00000000   Number         0  _printf_str.o ABSOLUTE
    ../clib/printf.c                         0x00000000   Number         0  __printf_flags_wp.o ABSOLUTE
    ../clib/printf.c                         0x00000000   Number         0  __printf_wp.o ABSOLUTE
    ../clib/printf.c                         0x00000000   Number         0  __printf_flags_ss.o ABSOLUTE
    ../clib/printf.c                         0x00000000   Number         0  _printf_dec.o ABSOLUTE
    ../clib/printf.c                         0x00000000   Number         0  __2printf.o ABSOLUTE
    ../clib/printf.c                         0x00000000   Number         0  _printf_char_common.o ABSOLUTE
    ../clib/printf.c                         0x00000000   Number         0  __printf_nopercent.o ABSOLUTE
    ../clib/printf_percent.s                 0x00000000   Number         0  _printf_d.o ABSOLUTE
    ../clib/printf_percent.s                 0x00000000   Number         0  _printf_percent.o ABSOLUTE
    ../clib/printf_percent.s                 0x00000000   Number         0  _printf_s.o ABSOLUTE
    ../clib/printf_percent.s                 0x00000000   Number         0  _printf_percent_end.o ABSOLUTE
    ../clib/signal.c                         0x00000000   Number         0  defsig_other.o ABSOLUTE
    ../clib/signal.c                         0x00000000   Number         0  defsig_segv_inner.o ABSOLUTE
    ../clib/signal.c                         0x00000000   Number         0  defsig_rtmem_outer.o ABSOLUTE
    ../clib/signal.c                         0x00000000   Number         0  defsig_pvfn_inner.o ABSOLUTE
    ../clib/signal.c                         0x00000000   Number         0  defsig_stak_inner.o ABSOLUTE
    ../clib/signal.c                         0x00000000   Number         0  defsig_rtred_inner.o ABSOLUTE
    ../clib/signal.c                         0x00000000   Number         0  defsig_fpe_formal.o ABSOLUTE
    ../clib/signal.c                         0x00000000   Number         0  defsig_abrt_inner.o ABSOLUTE
    ../clib/signal.c                         0x00000000   Number         0  __raise.o ABSOLUTE
    ../clib/signal.c                         0x00000000   Number         0  defsig_rtmem_inner.o ABSOLUTE
    ../clib/signal.c                         0x00000000   Number         0  defsig_exit.o ABSOLUTE
    ../clib/signal.c                         0x00000000   Number         0  defsig_general.o ABSOLUTE
    ../clib/signal.c                         0x00000000   Number         0  defsig_fpe_inner.o ABSOLUTE
    ../clib/signal.c                         0x00000000   Number         0  defsig_rtmem_formal.o ABSOLUTE
    ../clib/signal.c                         0x00000000   Number         0  defsig_fpe_outer.o ABSOLUTE
    ../clib/signal.c                         0x00000000   Number         0  defsig_cppl_inner.o ABSOLUTE
    ../clib/signal.s                         0x00000000   Number         0  defsig.o ABSOLUTE
    ../clib/stdlib.c                         0x00000000   Number         0  exit.o ABSOLUTE
    ../clib/string.c                         0x00000000   Number         0  memcmp.o ABSOLUTE
    ../clib/string.c                         0x00000000   Number         0  strlen.o ABSOLUTE
    ../fplib/fpinit.s                        0x00000000   Number         0  fpinit.o ABSOLUTE
    ..\..\..\..\..\..\software\freertos\freertos\Source\croutine.c 0x00000000   Number         0  croutine.o ABSOLUTE
    ..\..\..\..\..\..\software\freertos\freertos\Source\list.c 0x00000000   Number         0  list.o ABSOLUTE
    ..\..\..\..\..\..\software\freertos\freertos\Source\portable\MemMang\heap_3.c 0x00000000   Number         0  heap_3.o ABSOLUTE
    ..\..\..\..\..\..\software\freertos\freertos\Source\portable\RVDS\ARM_CM3\port.c 0x00000000   Number         0  port.o ABSOLUTE
    ..\..\..\..\..\..\software\freertos\freertos\Source\queue.c 0x00000000   Number         0  queue.o ABSOLUTE
    ..\..\..\..\..\..\software\freertos\freertos\Source\tasks.c 0x00000000   Number         0  tasks.o ABSOLUTE
    ..\..\..\..\..\..\software\freertos\freertoslpc\FreeRTOSCommonHooks.c 0x00000000   Number         0  freertoscommonhooks.o ABSOLUTE
    ..\..\..\..\..\..\software\lwip\contrib\apps\tcpecho\tcpecho.c 0x00000000   Number         0  tcpecho.o ABSOLUTE
    ..\..\..\..\..\..\software\lwip\lpclwip\arch\lpc17xx_40xx_emac.c 0x00000000   Number         0  lpc17xx_40xx_emac.o ABSOLUTE
    ..\..\..\..\..\..\software\lwip\lpclwip\arch\lpc17xx_40xx_systick_arch.c 0x00000000   Number         0  lpc17xx_40xx_systick_arch.o ABSOLUTE
    ..\..\..\..\..\..\software\lwip\lpclwip\arch\lpc_debug.c 0x00000000   Number         0  lpc_debug.o ABSOLUTE
    ..\..\..\..\..\..\software\lwip\lpclwip\arch\sys_arch_freertos.c 0x00000000   Number         0  sys_arch_freertos.o ABSOLUTE
    ..\..\..\..\..\..\software\lwip\lwip\src\api\api_lib.c 0x00000000   Number         0  api_lib.o ABSOLUTE
    ..\..\..\..\..\..\software\lwip\lwip\src\api\api_msg.c 0x00000000   Number         0  api_msg.o ABSOLUTE
    ..\..\..\..\..\..\software\lwip\lwip\src\api\err.c 0x00000000   Number         0  err.o ABSOLUTE
    ..\..\..\..\..\..\software\lwip\lwip\src\api\netbuf.c 0x00000000   Number         0  netbuf.o ABSOLUTE
    ..\..\..\..\..\..\software\lwip\lwip\src\api\netdb.c 0x00000000   Number         0  netdb.o ABSOLUTE
    ..\..\..\..\..\..\software\lwip\lwip\src\api\netifapi.c 0x00000000   Number         0  netifapi.o ABSOLUTE
    ..\..\..\..\..\..\software\lwip\lwip\src\api\sockets.c 0x00000000   Number         0  sockets.o ABSOLUTE
    ..\..\..\..\..\..\software\lwip\lwip\src\api\tcpip.c 0x00000000   Number         0  tcpip.o ABSOLUTE
    ..\..\..\..\..\..\software\lwip\lwip\src\core\def.c 0x00000000   Number         0  def.o ABSOLUTE
    ..\..\..\..\..\..\software\lwip\lwip\src\core\dhcp.c 0x00000000   Number         0  dhcp.o ABSOLUTE
    ..\..\..\..\..\..\software\lwip\lwip\src\core\dns.c 0x00000000   Number         0  dns.o ABSOLUTE
    ..\..\..\..\..\..\software\lwip\lwip\src\core\init.c 0x00000000   Number         0  init.o ABSOLUTE
    ..\..\..\..\..\..\software\lwip\lwip\src\core\ipv4\autoip.c 0x00000000   Number         0  autoip.o ABSOLUTE
    ..\..\..\..\..\..\software\lwip\lwip\src\core\ipv4\icmp.c 0x00000000   Number         0  icmp.o ABSOLUTE
    ..\..\..\..\..\..\software\lwip\lwip\src\core\ipv4\igmp.c 0x00000000   Number         0  igmp.o ABSOLUTE
    ..\..\..\..\..\..\software\lwip\lwip\src\core\ipv4\inet.c 0x00000000   Number         0  inet.o ABSOLUTE
    ..\..\..\..\..\..\software\lwip\lwip\src\core\ipv4\inet_chksum.c 0x00000000   Number         0  inet_chksum.o ABSOLUTE
    ..\..\..\..\..\..\software\lwip\lwip\src\core\ipv4\ip.c 0x00000000   Number         0  ip.o ABSOLUTE
    ..\..\..\..\..\..\software\lwip\lwip\src\core\ipv4\ip_addr.c 0x00000000   Number         0  ip_addr.o ABSOLUTE
    ..\..\..\..\..\..\software\lwip\lwip\src\core\ipv4\ip_frag.c 0x00000000   Number         0  ip_frag.o ABSOLUTE
    ..\..\..\..\..\..\software\lwip\lwip\src\core\mem.c 0x00000000   Number         0  mem.o ABSOLUTE
    ..\..\..\..\..\..\software\lwip\lwip\src\core\memp.c 0x00000000   Number         0  memp.o ABSOLUTE
    ..\..\..\..\..\..\software\lwip\lwip\src\core\netif.c 0x00000000   Number         0  netif.o ABSOLUTE
    ..\..\..\..\..\..\software\lwip\lwip\src\core\pbuf.c 0x00000000   Number         0  pbuf.o ABSOLUTE
    ..\..\..\..\..\..\software\lwip\lwip\src\core\raw.c 0x00000000   Number         0  raw.o ABSOLUTE
    ..\..\..\..\..\..\software\lwip\lwip\src\core\stats.c 0x00000000   Number         0  stats.o ABSOLUTE
    ..\..\..\..\..\..\software\lwip\lwip\src\core\sys.c 0x00000000   Number         0  sys.o ABSOLUTE
    ..\..\..\..\..\..\software\lwip\lwip\src\core\tcp.c 0x00000000   Number         0  tcp.o ABSOLUTE
    ..\..\..\..\..\..\software\lwip\lwip\src\core\tcp_in.c 0x00000000   Number         0  tcp_in.o ABSOLUTE
    ..\..\..\..\..\..\software\lwip\lwip\src\core\tcp_out.c 0x00000000   Number         0  tcp_out.o ABSOLUTE
    ..\..\..\..\..\..\software\lwip\lwip\src\core\timers.c 0x00000000   Number         0  timers.o ABSOLUTE
    ..\..\..\..\..\..\software\lwip\lwip\src\core\udp.c 0x00000000   Number         0  udp.o ABSOLUTE
    ..\..\..\..\..\..\software\lwip\lwip\src\netif\etharp.c 0x00000000   Number         0  etharp.o ABSOLUTE
    ..\..\..\..\examples\lwip\lwip_tcpecho_freertos\lwip_tcpecho_freertos.c 0x00000000   Number         0  lwip_tcpecho_freertos.o ABSOLUTE
    ..\..\..\..\startup_code\sysinit.c       0x00000000   Number         0  sysinit.o ABSOLUTE
    ..\..\board_common\lpc_phy_smsc87x0.c    0x00000000   Number         0  lpc_phy_smsc87x0.o ABSOLUTE
    ..\..\lpc_chip\chip_common\ring_buffer.c 0x00000000   Number         0  ring_buffer.o ABSOLUTE
    ..\\..\\..\\..\\..\\..\\software\\freertos\\freertos\\Source\\croutine.c 0x00000000   Number         0  croutine.o ABSOLUTE
    ..\\..\\..\\..\\..\\..\\software\\freertos\\freertos\\Source\\list.c 0x00000000   Number         0  list.o ABSOLUTE
    ..\\..\\..\\..\\..\\..\\software\\freertos\\freertos\\Source\\portable\\MemMang\\heap_3.c 0x00000000   Number         0  heap_3.o ABSOLUTE
    ..\\..\\..\\..\\..\\..\\software\\freertos\\freertos\\Source\\portable\\RVDS\\ARM_CM3\\port.c 0x00000000   Number         0  port.o ABSOLUTE
    ..\\..\\..\\..\\..\\..\\software\\freertos\\freertos\\Source\\queue.c 0x00000000   Number         0  queue.o ABSOLUTE
    ..\\..\\..\\..\\..\\..\\software\\freertos\\freertos\\Source\\tasks.c 0x00000000   Number         0  tasks.o ABSOLUTE
    ..\\..\\..\\..\\..\\..\\software\\freertos\\freertoslpc\\FreeRTOSCommonHooks.c 0x00000000   Number         0  freertoscommonhooks.o ABSOLUTE
    ..\\..\\..\\..\\..\\..\\software\\lwip\\contrib\\apps\\tcpecho\\tcpecho.c 0x00000000   Number         0  tcpecho.o ABSOLUTE
    ..\\..\\..\\..\\..\\..\\software\\lwip\\lpclwip\\arch\\lpc17xx_40xx_emac.c 0x00000000   Number         0  lpc17xx_40xx_emac.o ABSOLUTE
    ..\\..\\..\\..\\..\\..\\software\\lwip\\lpclwip\\arch\\sys_arch_freertos.c 0x00000000   Number         0  sys_arch_freertos.o ABSOLUTE
    ..\\..\\..\\..\\..\\..\\software\\lwip\\lwip\\src\\api\\api_lib.c 0x00000000   Number         0  api_lib.o ABSOLUTE
    ..\\..\\..\\..\\..\\..\\software\\lwip\\lwip\\src\\api\\api_msg.c 0x00000000   Number         0  api_msg.o ABSOLUTE
    ..\\..\\..\\..\\..\\..\\software\\lwip\\lwip\\src\\api\\tcpip.c 0x00000000   Number         0  tcpip.o ABSOLUTE
    ..\\..\\..\\..\\..\\..\\software\\lwip\\lwip\\src\\core\\init.c 0x00000000   Number         0  init.o ABSOLUTE
    ..\\..\\..\\..\\..\\..\\software\\lwip\\lwip\\src\\core\\memp.c 0x00000000   Number         0  memp.o ABSOLUTE
    ..\\..\\..\\..\\..\\..\\software\\lwip\\lwip\\src\\core\\pbuf.c 0x00000000   Number         0  pbuf.o ABSOLUTE
    ..\\..\\..\\..\\..\\..\\software\\lwip\\lwip\\src\\core\\sys.c 0x00000000   Number         0  sys.o ABSOLUTE
    ..\\..\\..\\..\\..\\..\\software\\lwip\\lwip\\src\\core\\timers.c 0x00000000   Number         0  timers.o ABSOLUTE
    ..\\..\\..\\..\\examples\\lwip\\lwip_tcpecho_freertos\\lwip_tcpecho_freertos.c 0x00000000   Number         0  lwip_tcpecho_freertos.o ABSOLUTE
    ..\\..\\..\\..\\examples\\lwip\\startup_code\\keil_startup_lpc17xx_40xx.s 0x00000000   Number         0  keil_startup_lpc17xx_40xx.o ABSOLUTE
    ..\\..\\..\\..\\startup_code\\sysinit.c  0x00000000   Number         0  sysinit.o ABSOLUTE
    ..\\..\\board_common\\lpc_phy_smsc87x0.c 0x00000000   Number         0  lpc_phy_smsc87x0.o ABSOLUTE
    board.c                                  0x00000000   Number         0  board.o ABSOLUTE
    board.c                                  0x00000000   Number         0  board.o ABSOLUTE
    board_sysinit.c                          0x00000000   Number         0  board_sysinit.o ABSOLUTE
    board_sysinit.c                          0x00000000   Number         0  board_sysinit.o ABSOLUTE
    chip_17xx_40xx.c                         0x00000000   Number         0  chip_17xx_40xx.o ABSOLUTE
    chip_17xx_40xx.c                         0x00000000   Number         0  chip_17xx_40xx.o ABSOLUTE
    clock_17xx_40xx.c                        0x00000000   Number         0  clock_17xx_40xx.o ABSOLUTE
    clock_17xx_40xx.c                        0x00000000   Number         0  clock_17xx_40xx.o ABSOLUTE
    dc.s                                     0x00000000   Number         0  dc.o ABSOLUTE
    enet_17xx_40xx.c                         0x00000000   Number         0  enet_17xx_40xx.o ABSOLUTE
    enet_17xx_40xx.c                         0x00000000   Number         0  enet_17xx_40xx.o ABSOLUTE
    i2s_17xx_40xx.c                          0x00000000   Number         0  i2s_17xx_40xx.o ABSOLUTE
    i2s_17xx_40xx.c                          0x00000000   Number         0  i2s_17xx_40xx.o ABSOLUTE
    iocon_17xx_40xx.c                        0x00000000   Number         0  iocon_17xx_40xx.o ABSOLUTE
    iocon_17xx_40xx.c                        0x00000000   Number         0  iocon_17xx_40xx.o ABSOLUTE
    sysinit_17xx_40xx.c                      0x00000000   Number         0  sysinit_17xx_40xx.o ABSOLUTE
    sysinit_17xx_40xx.c                      0x00000000   Number         0  sysinit_17xx_40xx.o ABSOLUTE
    uart_17xx_40xx.c                         0x00000000   Number         0  uart_17xx_40xx.o ABSOLUTE
    uart_17xx_40xx.c                         0x00000000   Number         0  uart_17xx_40xx.o ABSOLUTE
    !!!main                                  0x000000cc   Section        8  __main.o(!!!main)
    !!!scatter                               0x000000d4   Section       52  __scatter.o(!!!scatter)
    !!handler_copy                           0x00000108   Section       26  __scatter_copy.o(!!handler_copy)
    !!handler_zi                             0x00000124   Section       28  __scatter_zi.o(!!handler_zi)
    .ARM.Collect$$_printf_percent$$00000000  0x00000140   Section        0  _printf_percent.o(.ARM.Collect$$_printf_percent$$00000000)
    .ARM.Collect$$_printf_percent$$00000009  0x00000140   Section        6  _printf_d.o(.ARM.Collect$$_printf_percent$$00000009)
    .ARM.Collect$$_printf_percent$$00000014  0x00000146   Section        6  _printf_s.o(.ARM.Collect$$_printf_percent$$00000014)
    .ARM.Collect$$_printf_percent$$00000017  0x0000014c   Section        4  _printf_percent_end.o(.ARM.Collect$$_printf_percent$$00000017)
    .ARM.Collect$$libinit$$00000000          0x00000150   Section        2  libinit.o(.ARM.Collect$$libinit$$00000000)
    .ARM.Collect$$libinit$$00000002          0x00000152   Section        0  libinit2.o(.ARM.Collect$$libinit$$00000002)
    .ARM.Collect$$libinit$$00000004          0x00000152   Section        0  libinit2.o(.ARM.Collect$$libinit$$00000004)
    .ARM.Collect$$libinit$$00000005          0x00000152   Section        8  libinit2.o(.ARM.Collect$$libinit$$00000005)
    .ARM.Collect$$libinit$$0000000A          0x0000015a   Section        0  libinit2.o(.ARM.Collect$$libinit$$0000000A)
    .ARM.Collect$$libinit$$0000000C          0x0000015a   Section        0  libinit2.o(.ARM.Collect$$libinit$$0000000C)
    .ARM.Collect$$libinit$$0000000E          0x0000015a   Section        0  libinit2.o(.ARM.Collect$$libinit$$0000000E)
    .ARM.Collect$$libinit$$00000011          0x0000015a   Section        0  libinit2.o(.ARM.Collect$$libinit$$00000011)
    .ARM.Collect$$libinit$$00000013          0x0000015a   Section        0  libinit2.o(.ARM.Collect$$libinit$$00000013)
    .ARM.Collect$$libinit$$00000015          0x0000015a   Section        0  libinit2.o(.ARM.Collect$$libinit$$00000015)
    .ARM.Collect$$libinit$$00000017          0x0000015a   Section        0  libinit2.o(.ARM.Collect$$libinit$$00000017)
    .ARM.Collect$$libinit$$00000019          0x0000015a   Section        0  libinit2.o(.ARM.Collect$$libinit$$00000019)
    .ARM.Collect$$libinit$$0000001B          0x0000015a   Section        0  libinit2.o(.ARM.Collect$$libinit$$0000001B)
    .ARM.Collect$$libinit$$0000001D          0x0000015a   Section        0  libinit2.o(.ARM.Collect$$libinit$$0000001D)
    .ARM.Collect$$libinit$$0000001F          0x0000015a   Section        0  libinit2.o(.ARM.Collect$$libinit$$0000001F)
    .ARM.Collect$$libinit$$00000021          0x0000015a   Section        0  libinit2.o(.ARM.Collect$$libinit$$00000021)
    .ARM.Collect$$libinit$$00000023          0x0000015a   Section        0  libinit2.o(.ARM.Collect$$libinit$$00000023)
    .ARM.Collect$$libinit$$00000025          0x0000015a   Section        0  libinit2.o(.ARM.Collect$$libinit$$00000025)
    .ARM.Collect$$libinit$$0000002C          0x0000015a   Section        0  libinit2.o(.ARM.Collect$$libinit$$0000002C)
    .ARM.Collect$$libinit$$0000002E          0x0000015a   Section        0  libinit2.o(.ARM.Collect$$libinit$$0000002E)
    .ARM.Collect$$libinit$$00000030          0x0000015a   Section        0  libinit2.o(.ARM.Collect$$libinit$$00000030)
    .ARM.Collect$$libinit$$00000032          0x0000015a   Section        0  libinit2.o(.ARM.Collect$$libinit$$00000032)
    .ARM.Collect$$libinit$$00000033          0x0000015a   Section        2  libinit2.o(.ARM.Collect$$libinit$$00000033)
    .ARM.Collect$$libshutdown$$00000000      0x0000015c   Section        2  libshutdown.o(.ARM.Collect$$libshutdown$$00000000)
    .ARM.Collect$$libshutdown$$00000002      0x0000015e   Section        0  libshutdown2.o(.ARM.Collect$$libshutdown$$00000002)
    .ARM.Collect$$libshutdown$$00000004      0x0000015e   Section        0  libshutdown2.o(.ARM.Collect$$libshutdown$$00000004)
    .ARM.Collect$$libshutdown$$00000007      0x0000015e   Section        0  libshutdown2.o(.ARM.Collect$$libshutdown$$00000007)
    .ARM.Collect$$libshutdown$$0000000A      0x0000015e   Section        0  libshutdown2.o(.ARM.Collect$$libshutdown$$0000000A)
    .ARM.Collect$$libshutdown$$0000000C      0x0000015e   Section        0  libshutdown2.o(.ARM.Collect$$libshutdown$$0000000C)
    .ARM.Collect$$libshutdown$$0000000F      0x0000015e   Section        0  libshutdown2.o(.ARM.Collect$$libshutdown$$0000000F)
    .ARM.Collect$$libshutdown$$00000010      0x0000015e   Section        2  libshutdown2.o(.ARM.Collect$$libshutdown$$00000010)
    .ARM.Collect$$rtentry$$00000000          0x00000160   Section        0  __rtentry.o(.ARM.Collect$$rtentry$$00000000)
    .ARM.Collect$$rtentry$$00000002          0x00000160   Section        0  __rtentry2.o(.ARM.Collect$$rtentry$$00000002)
    .ARM.Collect$$rtentry$$00000004          0x00000160   Section        6  __rtentry4.o(.ARM.Collect$$rtentry$$00000004)
    .ARM.Collect$$rtentry$$00000009          0x00000166   Section        0  __rtentry2.o(.ARM.Collect$$rtentry$$00000009)
    .ARM.Collect$$rtentry$$0000000A          0x00000166   Section        4  __rtentry2.o(.ARM.Collect$$rtentry$$0000000A)
    .ARM.Collect$$rtentry$$0000000C          0x0000016a   Section        0  __rtentry2.o(.ARM.Collect$$rtentry$$0000000C)
    .ARM.Collect$$rtentry$$0000000D          0x0000016a   Section        8  __rtentry2.o(.ARM.Collect$$rtentry$$0000000D)
    .ARM.Collect$$rtexit$$00000000           0x00000172   Section        2  rtexit.o(.ARM.Collect$$rtexit$$00000000)
    .ARM.Collect$$rtexit$$00000002           0x00000174   Section        0  rtexit2.o(.ARM.Collect$$rtexit$$00000002)
    .ARM.Collect$$rtexit$$00000003           0x00000174   Section        4  rtexit2.o(.ARM.Collect$$rtexit$$00000003)
    .ARM.Collect$$rtexit$$00000004           0x00000178   Section        6  rtexit2.o(.ARM.Collect$$rtexit$$00000004)
    .emb_text                                0x00000180   Section      138  port.o(.emb_text)
    .emb_text                                0x0000020c   Section        0  maybetermalloc1.o(.emb_text)
    .text                                    0x0000020c   Section       68  keil_startup_lpc17xx_40xx.o(.text)
    .text                                    0x00000250   Section        0  h1_alloc.o(.text)
    .text                                    0x000002ae   Section        0  h1_free.o(.text)
    .text                                    0x000002fc   Section        0  noretval__2printf.o(.text)
    .text                                    0x00000314   Section        0  __printf.o(.text)
    .text                                    0x0000037c   Section        0  _printf_str.o(.text)
    .text                                    0x000003d0   Section        0  _printf_dec.o(.text)
    .text                                    0x00000448   Section        0  memcmp.o(.text)
    .text                                    0x000004a0   Section        0  strlen.o(.text)
    .text                                    0x000004de   Section      138  rt_memcpy_v6.o(.text)
    .text                                    0x00000568   Section      100  rt_memcpy_w.o(.text)
    .text                                    0x000005cc   Section       16  aeabi_memset.o(.text)
    .text                                    0x000005dc   Section       78  rt_memclr_w.o(.text)
    .text                                    0x0000062a   Section        0  heapauxi.o(.text)
    .text                                    0x00000630   Section        8  rt_heap_descriptor_intlibspace.o(.text)
    .text                                    0x00000638   Section        0  hguard.o(.text)
    .text                                    0x0000063c   Section        0  init_alloc.o(.text)
    .text                                    0x000006c6   Section        0  h1_init.o(.text)
    .text                                    0x000006d4   Section        0  _printf_intcommon.o(.text)
    .text                                    0x00000786   Section        0  _printf_char.o(.text)
    .text                                    0x000007b4   Section        0  _printf_char_file.o(.text)
    .text                                    0x000007d8   Section       68  rt_memclr.o(.text)
    .text                                    0x0000081c   Section        8  libspace.o(.text)
    .text                                    0x00000824   Section        0  h1_extend.o(.text)
    .text                                    0x00000858   Section        0  _printf_char_common.o(.text)
    _printf_input_char                       0x00000859   Thumb Code    10  _printf_char_common.o(.text)
    .text                                    0x00000888   Section        0  defsig_rtmem_outer.o(.text)
    .text                                    0x00000896   Section        2  use_no_semi.o(.text)
    .text                                    0x00000898   Section        0  indicate_semi.o(.text)
    .text                                    0x00000898   Section       74  sys_stackheap_outer.o(.text)
    .text                                    0x000008e2   Section        0  exit.o(.text)
    .text                                    0x000008f4   Section        0  defsig_exit.o(.text)
    .text                                    0x00000900   Section        0  defsig_rtmem_inner.o(.text)
    .text                                    0x00000950   Section        0  defsig_general.o(.text)
    .text                                    0x00000982   Section        0  sys_wrch.o(.text)
    i.Board_Debug_Init                       0x00000990   Section        0  board.o(i.Board_Debug_Init)
    i.Board_ENET_GetMacADDR                  0x000009b8   Section        0  board.o(i.Board_ENET_GetMacADDR)
    i.Board_Init                             0x000009d8   Section        0  board.o(i.Board_Init)
    i.Board_LED_Set                          0x00000a00   Section        0  board.o(i.Board_LED_Set)
    i.Board_SetupClocking                    0x00000a18   Section        0  board_sysinit.o(i.Board_SetupClocking)
    i.Board_SetupMuxing                      0x00000a34   Section        0  board_sysinit.o(i.Board_SetupMuxing)
    i.Board_SystemInit                       0x00000a48   Section        0  board_sysinit.o(i.Board_SystemInit)
    i.Board_UARTPutChar                      0x00000a58   Section        0  board.o(i.Board_UARTPutChar)
    i.Board_UARTPutSTR                       0x00000a68   Section        0  board.o(i.Board_UARTPutSTR)
    i.Chip_Clock_DisablePLL                  0x00000a7c   Section        0  clock_17xx_40xx.o(i.Chip_Clock_DisablePLL)
    i.Chip_Clock_EnablePLL                   0x00000a94   Section        0  clock_17xx_40xx.o(i.Chip_Clock_EnablePLL)
    i.Chip_Clock_EnablePeriphClock           0x00000aac   Section        0  clock_17xx_40xx.o(i.Chip_Clock_EnablePeriphClock)
    i.Chip_Clock_FeedPLL                     0x00000ac0   Section        0  clock_17xx_40xx.o(i.Chip_Clock_FeedPLL)
    Chip_Clock_FeedPLL                       0x00000ac1   Thumb Code    18  clock_17xx_40xx.o(i.Chip_Clock_FeedPLL)
    i.Chip_Clock_GetCPUClockDiv              0x00000ad8   Section        0  clock_17xx_40xx.o(i.Chip_Clock_GetCPUClockDiv)
    i.Chip_Clock_GetCPUClockSource           0x00000ae8   Section        0  clock_17xx_40xx.o(i.Chip_Clock_GetCPUClockSource)
    i.Chip_Clock_GetMainClockRate            0x00000b00   Section        0  clock_17xx_40xx.o(i.Chip_Clock_GetMainClockRate)
    i.Chip_Clock_GetMainPLLOutClockRate      0x00000b20   Section        0  clock_17xx_40xx.o(i.Chip_Clock_GetMainPLLOutClockRate)
    i.Chip_Clock_GetPCLKDiv                  0x00000b58   Section        0  clock_17xx_40xx.o(i.Chip_Clock_GetPCLKDiv)
    i.Chip_Clock_GetPeripheralClockRate      0x00000b98   Section        0  clock_17xx_40xx.o(i.Chip_Clock_GetPeripheralClockRate)
    i.Chip_Clock_GetSYSCLKRate               0x00000bb0   Section        0  clock_17xx_40xx.o(i.Chip_Clock_GetSYSCLKRate)
    i.Chip_Clock_GetSystemClockRate          0x00000be8   Section        0  clock_17xx_40xx.o(i.Chip_Clock_GetSystemClockRate)
    i.Chip_Clock_SetCPUClockDiv              0x00000bfc   Section        0  clock_17xx_40xx.o(i.Chip_Clock_SetCPUClockDiv)
    i.Chip_Clock_SetupPLL                    0x00000c08   Section        0  clock_17xx_40xx.o(i.Chip_Clock_SetupPLL)
    i.Chip_ENET_FindMIIDiv                   0x00000c2c   Section        0  enet_17xx_40xx.o(i.Chip_ENET_FindMIIDiv)
    i.Chip_ENET_GetFillDescNum               0x00000c54   Section        0  enet_17xx_40xx.o(i.Chip_ENET_GetFillDescNum)
    i.Chip_ENET_IncRXConsumeIndex            0x00000c6e   Section        0  enet_17xx_40xx.o(i.Chip_ENET_IncRXConsumeIndex)
    i.Chip_ENET_IncTXProduceIndex            0x00000c86   Section        0  enet_17xx_40xx.o(i.Chip_ENET_IncTXProduceIndex)
    i.Chip_ENET_Init                         0x00000c9e   Section        0  enet_17xx_40xx.o(i.Chip_ENET_Init)
    i.Chip_ENET_InitRxDescriptors            0x00000d10   Section        0  enet_17xx_40xx.o(i.Chip_ENET_InitRxDescriptors)
    i.Chip_ENET_InitTxDescriptors            0x00000d26   Section        0  enet_17xx_40xx.o(i.Chip_ENET_InitTxDescriptors)
    i.Chip_ENET_IsRxEmpty                    0x00000d3c   Section        0  lpc17xx_40xx_emac.o(i.Chip_ENET_IsRxEmpty)
    Chip_ENET_IsRxEmpty                      0x00000d3d   Thumb Code    20  lpc17xx_40xx_emac.o(i.Chip_ENET_IsRxEmpty)
    i.Chip_ENET_ReadMIIData                  0x00000d50   Section        0  enet_17xx_40xx.o(i.Chip_ENET_ReadMIIData)
    i.Chip_ENET_SetFullDuplex                0x00000d5a   Section        0  enet_17xx_40xx.o(i.Chip_ENET_SetFullDuplex)
    i.Chip_ENET_SetHalfDuplex                0x00000d74   Section        0  enet_17xx_40xx.o(i.Chip_ENET_SetHalfDuplex)
    i.Chip_ENET_SetupMII                     0x00000d90   Section        0  enet_17xx_40xx.o(i.Chip_ENET_SetupMII)
    i.Chip_ENET_StartMIIRead                 0x00000db4   Section        0  enet_17xx_40xx.o(i.Chip_ENET_StartMIIRead)
    i.Chip_ENET_StartMIIWrite                0x00000dcc   Section        0  enet_17xx_40xx.o(i.Chip_ENET_StartMIIWrite)
    i.Chip_GPIO_SetPinDIRInput               0x00000de4   Section        0  board.o(i.Chip_GPIO_SetPinDIRInput)
    Chip_GPIO_SetPinDIRInput                 0x00000de5   Thumb Code    16  board.o(i.Chip_GPIO_SetPinDIRInput)
    i.Chip_GPIO_WriteDirBit                  0x00000df4   Section        0  board.o(i.Chip_GPIO_WriteDirBit)
    Chip_GPIO_WriteDirBit                    0x00000df5   Thumb Code    22  board.o(i.Chip_GPIO_WriteDirBit)
    i.Chip_GPIO_WritePortBit                 0x00000e0a   Section        0  board.o(i.Chip_GPIO_WritePortBit)
    Chip_GPIO_WritePortBit                   0x00000e0b   Thumb Code    28  board.o(i.Chip_GPIO_WritePortBit)
    i.Chip_IOCON_PinMux                      0x00000e26   Section        0  iocon_17xx_40xx.o(i.Chip_IOCON_PinMux)
    i.Chip_IOCON_PinMuxSet                   0x00000e58   Section        0  iocon_17xx_40xx.o(i.Chip_IOCON_PinMuxSet)
    i.Chip_IOCON_SetPinMuxing                0x00000e68   Section        0  iocon_17xx_40xx.o(i.Chip_IOCON_SetPinMuxing)
    i.Chip_SetupXtalClocking                 0x00000e90   Section        0  sysinit_17xx_40xx.o(i.Chip_SetupXtalClocking)
    i.Chip_UART_GetClkIndex                  0x00000f1c   Section        0  uart_17xx_40xx.o(i.Chip_UART_GetClkIndex)
    Chip_UART_GetClkIndex                    0x00000f1d   Thumb Code    34  uart_17xx_40xx.o(i.Chip_UART_GetClkIndex)
    i.Chip_UART_GetClockIndex                0x00000f4c   Section        0  uart_17xx_40xx.o(i.Chip_UART_GetClockIndex)
    Chip_UART_GetClockIndex                  0x00000f4d   Thumb Code    34  uart_17xx_40xx.o(i.Chip_UART_GetClockIndex)
    i.Chip_UART_Init                         0x00000f7c   Section        0  uart_17xx_40xx.o(i.Chip_UART_Init)
    i.Chip_UART_SetBaud                      0x00000fb4   Section        0  uart_17xx_40xx.o(i.Chip_UART_SetBaud)
    i.Chip_UART_TXEnable                     0x00000fee   Section        0  uart_17xx_40xx.o(i.Chip_UART_TXEnable)
    i.ETH_IRQHandler                         0x00000ff4   Section        0  lpc17xx_40xx_emac.o(i.ETH_IRQHandler)
    i.SysTick_Handler                        0x0000104c   Section        0  port.o(i.SysTick_Handler)
    i.SystemCoreClockUpdate                  0x00001070   Section        0  chip_17xx_40xx.o(i.SystemCoreClockUpdate)
    i.SystemInit                             0x00001080   Section        0  sysinit.o(i.SystemInit)
    i._sys_exit                              0x00001094   Section        0  board.o(i._sys_exit)
    i.accept_function                        0x00001098   Section        0  api_msg.o(i.accept_function)
    accept_function                          0x00001099   Thumb Code   146  api_msg.o(i.accept_function)
    i.arp_timer                              0x0000112c   Section        0  timers.o(i.arp_timer)
    arp_timer                                0x0000112d   Thumb Code    22  timers.o(i.arp_timer)
    i.assert_loop                            0x00001148   Section        0  lpc_debug.o(i.assert_loop)
    i.dhcp_arp_reply                         0x0000114a   Section        0  dhcp.o(i.dhcp_arp_reply)
    i.dhcp_bind                              0x0000116a   Section        0  dhcp.o(i.dhcp_bind)
    dhcp_bind                                0x0000116b   Thumb Code   198  dhcp.o(i.dhcp_bind)
    i.dhcp_check                             0x00001230   Section        0  dhcp.o(i.dhcp_check)
    dhcp_check                               0x00001231   Thumb Code    48  dhcp.o(i.dhcp_check)
    i.dhcp_coarse_tmr                        0x00001260   Section        0  dhcp.o(i.dhcp_coarse_tmr)
    i.dhcp_create_msg                        0x000012c0   Section        0  dhcp.o(i.dhcp_create_msg)
    dhcp_create_msg                          0x000012c1   Thumb Code   318  dhcp.o(i.dhcp_create_msg)
    i.dhcp_decline                           0x00001408   Section        0  dhcp.o(i.dhcp_decline)
    dhcp_decline                             0x00001409   Thumb Code   114  dhcp.o(i.dhcp_decline)
    i.dhcp_delete_msg                        0x00001480   Section        0  dhcp.o(i.dhcp_delete_msg)
    dhcp_delete_msg                          0x00001481   Thumb Code    48  dhcp.o(i.dhcp_delete_msg)
    i.dhcp_discover                          0x000014b0   Section        0  dhcp.o(i.dhcp_discover)
    dhcp_discover                            0x000014b1   Thumb Code   184  dhcp.o(i.dhcp_discover)
    i.dhcp_fine_tmr                          0x0000156c   Section        0  dhcp.o(i.dhcp_fine_tmr)
    i.dhcp_handle_ack                        0x000015a0   Section        0  dhcp.o(i.dhcp_handle_ack)
    dhcp_handle_ack                          0x000015a1   Thumb Code    88  dhcp.o(i.dhcp_handle_ack)
    i.dhcp_network_changed                   0x000015fc   Section        0  dhcp.o(i.dhcp_network_changed)
    i.dhcp_option                            0x00001642   Section        0  dhcp.o(i.dhcp_option)
    dhcp_option                              0x00001643   Thumb Code    52  dhcp.o(i.dhcp_option)
    i.dhcp_option_byte                       0x00001676   Section        0  dhcp.o(i.dhcp_option_byte)
    dhcp_option_byte                         0x00001677   Thumb Code    32  dhcp.o(i.dhcp_option_byte)
    i.dhcp_option_hostname                   0x00001698   Section        0  dhcp.o(i.dhcp_option_hostname)
    dhcp_option_hostname                     0x00001699   Thumb Code    80  dhcp.o(i.dhcp_option_hostname)
    i.dhcp_option_long                       0x000016e8   Section        0  dhcp.o(i.dhcp_option_long)
    dhcp_option_long                         0x000016e9   Thumb Code    82  dhcp.o(i.dhcp_option_long)
    i.dhcp_option_short                      0x0000173a   Section        0  dhcp.o(i.dhcp_option_short)
    dhcp_option_short                        0x0000173b   Thumb Code    50  dhcp.o(i.dhcp_option_short)
    i.dhcp_option_trailer                    0x0000176c   Section        0  dhcp.o(i.dhcp_option_trailer)
    dhcp_option_trailer                      0x0000176d   Thumb Code    74  dhcp.o(i.dhcp_option_trailer)
    i.dhcp_parse_reply                       0x000017b8   Section        0  dhcp.o(i.dhcp_parse_reply)
    dhcp_parse_reply                         0x000017b9   Thumb Code   518  dhcp.o(i.dhcp_parse_reply)
    i.dhcp_rebind                            0x000019c4   Section        0  dhcp.o(i.dhcp_rebind)
    dhcp_rebind                              0x000019c5   Thumb Code   136  dhcp.o(i.dhcp_rebind)
    i.dhcp_reboot                            0x00001a50   Section        0  dhcp.o(i.dhcp_reboot)
    dhcp_reboot                              0x00001a51   Thumb Code   154  dhcp.o(i.dhcp_reboot)
    i.dhcp_recv                              0x00001af0   Section        0  dhcp.o(i.dhcp_recv)
    dhcp_recv                                0x00001af1   Thumb Code   274  dhcp.o(i.dhcp_recv)
    i.dhcp_release                           0x00001c0c   Section        0  dhcp.o(i.dhcp_release)
    i.dhcp_renew                             0x00001cb0   Section        0  dhcp.o(i.dhcp_renew)
    i.dhcp_select                            0x00001d3c   Section        0  dhcp.o(i.dhcp_select)
    dhcp_select                              0x00001d3d   Thumb Code   236  dhcp.o(i.dhcp_select)
    i.dhcp_set_state                         0x00001e2c   Section        0  dhcp.o(i.dhcp_set_state)
    dhcp_set_state                           0x00001e2d   Thumb Code    16  dhcp.o(i.dhcp_set_state)
    i.dhcp_start                             0x00001e3c   Section        0  dhcp.o(i.dhcp_start)
    i.dhcp_stop                              0x00001ef0   Section        0  dhcp.o(i.dhcp_stop)
    i.dhcp_timeout                           0x00001f2e   Section        0  dhcp.o(i.dhcp_timeout)
    dhcp_timeout                             0x00001f2f   Thumb Code   136  dhcp.o(i.dhcp_timeout)
    i.dhcp_timer_coarse                      0x00001fb8   Section        0  timers.o(i.dhcp_timer_coarse)
    dhcp_timer_coarse                        0x00001fb9   Thumb Code    22  timers.o(i.dhcp_timer_coarse)
    i.dhcp_timer_fine                        0x00001fd4   Section        0  timers.o(i.dhcp_timer_fine)
    dhcp_timer_fine                          0x00001fd5   Thumb Code    22  timers.o(i.dhcp_timer_fine)
    i.do_bind                                0x00001ff0   Section        0  api_msg.o(i.do_bind)
    i.do_close                               0x0000203e   Section        0  api_msg.o(i.do_close)
    i.do_close_internal                      0x000020b0   Section        0  api_msg.o(i.do_close_internal)
    do_close_internal                        0x000020b1   Thumb Code   280  api_msg.o(i.do_close_internal)
    i.do_delconn                             0x000021d4   Section        0  api_msg.o(i.do_delconn)
    i.do_listen                              0x0000227c   Section        0  api_msg.o(i.do_listen)
    i.do_newconn                             0x0000231c   Section        0  api_msg.o(i.do_newconn)
    i.do_recv                                0x0000233c   Section        0  api_msg.o(i.do_recv)
    i.do_write                               0x0000237e   Section        0  api_msg.o(i.do_write)
    i.do_writemore                           0x000023e0   Section        0  api_msg.o(i.do_writemore)
    do_writemore                             0x000023e1   Thumb Code   324  api_msg.o(i.do_writemore)
    i.err_tcp                                0x00002524   Section        0  api_msg.o(i.err_tcp)
    err_tcp                                  0x00002525   Thumb Code   168  api_msg.o(i.err_tcp)
    i.etharp_arp_input                       0x000025cc   Section        0  etharp.o(i.etharp_arp_input)
    etharp_arp_input                         0x000025cd   Thumb Code   226  etharp.o(i.etharp_arp_input)
    i.etharp_cleanup_netif                   0x000026b0   Section        0  etharp.o(i.etharp_cleanup_netif)
    i.etharp_find_entry                      0x000026e0   Section        0  etharp.o(i.etharp_find_entry)
    etharp_find_entry                        0x000026e1   Thumb Code   294  etharp.o(i.etharp_find_entry)
    i.etharp_free_entry                      0x0000280c   Section        0  etharp.o(i.etharp_free_entry)
    etharp_free_entry                        0x0000280d   Thumb Code    32  etharp.o(i.etharp_free_entry)
    i.etharp_output                          0x00002830   Section        0  etharp.o(i.etharp_output)
    i.etharp_output_to_arp_index             0x00002944   Section        0  etharp.o(i.etharp_output_to_arp_index)
    etharp_output_to_arp_index               0x00002945   Thumb Code    72  etharp.o(i.etharp_output_to_arp_index)
    i.etharp_query                           0x00002990   Section        0  etharp.o(i.etharp_query)
    i.etharp_raw                             0x00002a9c   Section        0  etharp.o(i.etharp_raw)
    etharp_raw                               0x00002a9d   Thumb Code   190  etharp.o(i.etharp_raw)
    i.etharp_request                         0x00002b5c   Section        0  etharp.o(i.etharp_request)
    i.etharp_send_ip                         0x00002b80   Section        0  etharp.o(i.etharp_send_ip)
    etharp_send_ip                           0x00002b81   Thumb Code    60  etharp.o(i.etharp_send_ip)
    i.etharp_tmr                             0x00002bbc   Section        0  etharp.o(i.etharp_tmr)
    i.etharp_update_arp_entry                0x00002c04   Section        0  etharp.o(i.etharp_update_arp_entry)
    etharp_update_arp_entry                  0x00002c05   Thumb Code   132  etharp.o(i.etharp_update_arp_entry)
    i.ethernet_input                         0x00002c8c   Section        0  etharp.o(i.ethernet_input)
    i.ferror                                 0x00002d20   Section        0  board.o(i.ferror)
    i.fputc                                  0x00002d26   Section        0  board.o(i.fputc)
    i.icmp_dest_unreach                      0x00002d32   Section        0  icmp.o(i.icmp_dest_unreach)
    i.icmp_input                             0x00002d3c   Section        0  icmp.o(i.icmp_input)
    i.icmp_send_response                     0x00002e54   Section        0  icmp.o(i.icmp_send_response)
    icmp_send_response                       0x00002e55   Thumb Code   110  icmp.o(i.icmp_send_response)
    i.icmp_time_exceeded                     0x00002ec2   Section        0  icmp.o(i.icmp_time_exceeded)
    i.inet_chksum                            0x00002eca   Section        0  inet_chksum.o(i.inet_chksum)
    i.inet_chksum_pbuf                       0x00002ed6   Section        0  inet_chksum.o(i.inet_chksum_pbuf)
    i.inet_chksum_pseudo                     0x00002f1e   Section        0  inet_chksum.o(i.inet_chksum_pseudo)
    i.inet_chksum_pseudo_partial             0x00002fa4   Section        0  inet_chksum.o(i.inet_chksum_pseudo_partial)
    i.ip4_addr_isbroadcast                   0x00003048   Section        0  ip_addr.o(i.ip4_addr_isbroadcast)
    i.ip_frag                                0x00003078   Section        0  ip_frag.o(i.ip_frag)
    i.ip_frag_free_pbuf_custom_ref           0x000031ec   Section        0  ip_frag.o(i.ip_frag_free_pbuf_custom_ref)
    ip_frag_free_pbuf_custom_ref             0x000031ed   Thumb Code    20  ip_frag.o(i.ip_frag_free_pbuf_custom_ref)
    i.ip_input                               0x00003200   Section        0  ip.o(i.ip_input)
    i.ip_output                              0x0000337c   Section        0  ip.o(i.ip_output)
    i.ip_output_if                           0x000033bc   Section        0  ip.o(i.ip_output_if)
    i.ip_reass                               0x000034a8   Section        0  ip_frag.o(i.ip_reass)
    i.ip_reass_chain_frag_into_datagram_and_validate 0x0000363c   Section        0  ip_frag.o(i.ip_reass_chain_frag_into_datagram_and_validate)
    ip_reass_chain_frag_into_datagram_and_validate 0x0000363d   Thumb Code   288  ip_frag.o(i.ip_reass_chain_frag_into_datagram_and_validate)
    i.ip_reass_dequeue_datagram              0x00003760   Section        0  ip_frag.o(i.ip_reass_dequeue_datagram)
    ip_reass_dequeue_datagram                0x00003761   Thumb Code    40  ip_frag.o(i.ip_reass_dequeue_datagram)
    i.ip_reass_free_complete_datagram        0x0000378c   Section        0  ip_frag.o(i.ip_reass_free_complete_datagram)
    ip_reass_free_complete_datagram          0x0000378d   Thumb Code   158  ip_frag.o(i.ip_reass_free_complete_datagram)
    i.ip_reass_remove_oldest_datagram        0x00003830   Section        0  ip_frag.o(i.ip_reass_remove_oldest_datagram)
    ip_reass_remove_oldest_datagram          0x00003831   Thumb Code   104  ip_frag.o(i.ip_reass_remove_oldest_datagram)
    i.ip_reass_timer                         0x0000389c   Section        0  timers.o(i.ip_reass_timer)
    ip_reass_timer                           0x0000389d   Thumb Code    22  timers.o(i.ip_reass_timer)
    i.ip_reass_tmr                           0x000038b8   Section        0  ip_frag.o(i.ip_reass_tmr)
    i.ip_route                               0x000038e4   Section        0  ip.o(i.ip_route)
    i.ipaddr_ntoa_r                          0x00003924   Section        0  ip_addr.o(i.ipaddr_ntoa_r)
    i.ipfrag_free_pbuf_custom                0x0000399c   Section        0  ip_frag.o(i.ipfrag_free_pbuf_custom)
    ipfrag_free_pbuf_custom                  0x0000399d   Thumb Code    28  ip_frag.o(i.ipfrag_free_pbuf_custom)
    i.low_level_init                         0x000039b8   Section        0  lpc17xx_40xx_emac.o(i.low_level_init)
    low_level_init                           0x000039b9   Thumb Code   172  lpc17xx_40xx_emac.o(i.low_level_init)
    i.lpcPHYStsPoll                          0x00003a6c   Section        0  lpc_phy_smsc87x0.o(i.lpcPHYStsPoll)
    i.lpc_enetif_init                        0x00003adc   Section        0  lpc17xx_40xx_emac.o(i.lpc_enetif_init)
    i.lpc_enetif_input                       0x00003bd8   Section        0  lpc17xx_40xx_emac.o(i.lpc_enetif_input)
    i.lpc_etharp_output                      0x00003c12   Section        0  lpc17xx_40xx_emac.o(i.lpc_etharp_output)
    lpc_etharp_output                        0x00003c13   Thumb Code    18  lpc17xx_40xx_emac.o(i.lpc_etharp_output)
    i.lpc_low_level_input                    0x00003c24   Section        0  lpc17xx_40xx_emac.o(i.lpc_low_level_input)
    lpc_low_level_input                      0x00003c25   Thumb Code   220  lpc17xx_40xx_emac.o(i.lpc_low_level_input)
    i.lpc_low_level_output                   0x00003d00   Section        0  lpc17xx_40xx_emac.o(i.lpc_low_level_output)
    lpc_low_level_output                     0x00003d01   Thumb Code   230  lpc17xx_40xx_emac.o(i.lpc_low_level_output)
    i.lpc_mii_write                          0x00003df0   Section        0  lpc_phy_smsc87x0.o(i.lpc_mii_write)
    lpc_mii_write                            0x00003df1   Thumb Code    54  lpc_phy_smsc87x0.o(i.lpc_mii_write)
    i.lpc_phy_init                           0x00003e2c   Section        0  lpc_phy_smsc87x0.o(i.lpc_phy_init)
    i.lpc_rx_queue                           0x00003eb8   Section        0  lpc17xx_40xx_emac.o(i.lpc_rx_queue)
    i.lpc_rx_setup                           0x00003ef8   Section        0  lpc17xx_40xx_emac.o(i.lpc_rx_setup)
    lpc_rx_setup                             0x00003ef9   Thumb Code    42  lpc17xx_40xx_emac.o(i.lpc_rx_setup)
    i.lpc_rxqueue_pbuf                       0x00003f22   Section        0  lpc17xx_40xx_emac.o(i.lpc_rxqueue_pbuf)
    lpc_rxqueue_pbuf                         0x00003f23   Thumb Code    66  lpc17xx_40xx_emac.o(i.lpc_rxqueue_pbuf)
    i.lpc_tx_ready                           0x00003f64   Section        0  lpc17xx_40xx_emac.o(i.lpc_tx_ready)
    i.lpc_tx_reclaim                         0x00003f84   Section        0  lpc17xx_40xx_emac.o(i.lpc_tx_reclaim)
    i.lpc_tx_setup                           0x00003ff0   Section        0  lpc17xx_40xx_emac.o(i.lpc_tx_setup)
    lpc_tx_setup                             0x00003ff1   Thumb Code    56  lpc17xx_40xx_emac.o(i.lpc_tx_setup)
    i.lwip_chksum_copy                       0x00004028   Section        0  inet_chksum.o(i.lwip_chksum_copy)
    i.lwip_htonl                             0x0000403e   Section        0  def.o(i.lwip_htonl)
    i.lwip_htons                             0x00004042   Section        0  def.o(i.lwip_htons)
    i.lwip_init                              0x00004046   Section        0  init.o(i.lwip_init)
    i.lwip_ntohl                             0x00004060   Section        0  def.o(i.lwip_ntohl)
    i.lwip_ntohs                             0x00004064   Section        0  def.o(i.lwip_ntohs)
    i.lwip_standard_chksum                   0x00004068   Section        0  inet_chksum.o(i.lwip_standard_chksum)
    lwip_standard_chksum                     0x00004069   Thumb Code    62  inet_chksum.o(i.lwip_standard_chksum)
    i.main                                   0x000040a8   Section        0  lwip_tcpecho_freertos.o(i.main)
    i.msDelay                                0x000040ec   Section        0  lwip_tcpecho_freertos.o(i.msDelay)
    i.netbuf_data                            0x000040fa   Section        0  netbuf.o(i.netbuf_data)
    i.netbuf_delete                          0x00004126   Section        0  netbuf.o(i.netbuf_delete)
    i.netbuf_next                            0x00004146   Section        0  netbuf.o(i.netbuf_next)
    i.netconn_accept                         0x0000416a   Section        0  api_lib.o(i.netconn_accept)
    i.netconn_alloc                          0x000041d0   Section        0  api_msg.o(i.netconn_alloc)
    i.netconn_bind                           0x00004240   Section        0  api_lib.o(i.netconn_bind)
    i.netconn_close                          0x00004284   Section        0  api_lib.o(i.netconn_close)
    i.netconn_close_shutdown                 0x0000428c   Section        0  api_lib.o(i.netconn_close_shutdown)
    netconn_close_shutdown                   0x0000428d   Thumb Code    62  api_lib.o(i.netconn_close_shutdown)
    i.netconn_delete                         0x000042d0   Section        0  api_lib.o(i.netconn_delete)
    i.netconn_drain                          0x000042f4   Section        0  api_msg.o(i.netconn_drain)
    netconn_drain                            0x000042f5   Thumb Code   142  api_msg.o(i.netconn_drain)
    i.netconn_free                           0x00004382   Section        0  api_msg.o(i.netconn_free)
    i.netconn_listen_with_backlog            0x000043b4   Section        0  api_lib.o(i.netconn_listen_with_backlog)
    i.netconn_new_with_proto_and_callback    0x000043f4   Section        0  api_lib.o(i.netconn_new_with_proto_and_callback)
    i.netconn_recv                           0x0000445c   Section        0  api_lib.o(i.netconn_recv)
    i.netconn_recv_data                      0x000044f0   Section        0  api_lib.o(i.netconn_recv_data)
    netconn_recv_data                        0x000044f1   Thumb Code   190  api_lib.o(i.netconn_recv_data)
    i.netconn_write_partly                   0x000045b4   Section        0  api_lib.o(i.netconn_write_partly)
    i.netif_add                              0x00004644   Section        0  netif.o(i.netif_add)
    i.netif_init                             0x000046a0   Section        0  netif.o(i.netif_init)
    i.netif_set_addr                         0x000046a2   Section        0  netif.o(i.netif_set_addr)
    i.netif_set_default                      0x000046c4   Section        0  netif.o(i.netif_set_default)
    i.netif_set_down                         0x000046d0   Section        0  netif.o(i.netif_set_down)
    i.netif_set_gw                           0x000046ea   Section        0  netif.o(i.netif_set_gw)
    i.netif_set_ipaddr                       0x000046f4   Section        0  netif.o(i.netif_set_ipaddr)
    i.netif_set_link_down                    0x0000475c   Section        0  netif.o(i.netif_set_link_down)
    i.netif_set_link_up                      0x0000476e   Section        0  netif.o(i.netif_set_link_up)
    i.netif_set_netmask                      0x000047a6   Section        0  netif.o(i.netif_set_netmask)
    i.netif_set_up                           0x000047ae   Section        0  netif.o(i.netif_set_up)
    i.pbuf_alloc                             0x000047d0   Section        0  pbuf.o(i.pbuf_alloc)
    i.pbuf_alloced_custom                    0x0000495c   Section        0  pbuf.o(i.pbuf_alloced_custom)
    i.pbuf_cat                               0x000049b4   Section        0  pbuf.o(i.pbuf_cat)
    i.pbuf_chain                             0x000049f4   Section        0  pbuf.o(i.pbuf_chain)
    i.pbuf_clen                              0x00004a06   Section        0  pbuf.o(i.pbuf_clen)
    i.pbuf_copy                              0x00004a18   Section        0  pbuf.o(i.pbuf_copy)
    i.pbuf_copy_partial                      0x00004ace   Section        0  pbuf.o(i.pbuf_copy_partial)
    i.pbuf_free                              0x00004b38   Section        0  pbuf.o(i.pbuf_free)
    i.pbuf_free_ooseq_callback               0x00004bac   Section        0  pbuf.o(i.pbuf_free_ooseq_callback)
    pbuf_free_ooseq_callback                 0x00004bad   Thumb Code    42  pbuf.o(i.pbuf_free_ooseq_callback)
    i.pbuf_header                            0x00004be0   Section        0  pbuf.o(i.pbuf_header)
    i.pbuf_pool_is_empty                     0x00004c50   Section        0  pbuf.o(i.pbuf_pool_is_empty)
    pbuf_pool_is_empty                       0x00004c51   Thumb Code    54  pbuf.o(i.pbuf_pool_is_empty)
    i.pbuf_realloc                           0x00004c90   Section        0  pbuf.o(i.pbuf_realloc)
    i.pbuf_ref                               0x00004d04   Section        0  pbuf.o(i.pbuf_ref)
    i.pcb_new                                0x00004d20   Section        0  api_msg.o(i.pcb_new)
    pcb_new                                  0x00004d21   Thumb Code   106  api_msg.o(i.pcb_new)
    i.poll_tcp                               0x00004d90   Section        0  api_msg.o(i.poll_tcp)
    poll_tcp                                 0x00004d91   Thumb Code    88  api_msg.o(i.poll_tcp)
    i.prvAddCurrentTaskToDelayedList         0x00004de8   Section        0  tasks.o(i.prvAddCurrentTaskToDelayedList)
    prvAddCurrentTaskToDelayedList           0x00004de9   Thumb Code    48  tasks.o(i.prvAddCurrentTaskToDelayedList)
    i.prvCheckTasksWaitingTermination        0x00004e1c   Section        0  tasks.o(i.prvCheckTasksWaitingTermination)
    prvCheckTasksWaitingTermination          0x00004e1d   Thumb Code    76  tasks.o(i.prvCheckTasksWaitingTermination)
    i.prvCopyDataFromQueue                   0x00004e70   Section        0  queue.o(i.prvCopyDataFromQueue)
    prvCopyDataFromQueue                     0x00004e71   Thumb Code    40  queue.o(i.prvCopyDataFromQueue)
    i.prvCopyDataToQueue                     0x00004e98   Section        0  queue.o(i.prvCopyDataToQueue)
    prvCopyDataToQueue                       0x00004e99   Thumb Code   104  queue.o(i.prvCopyDataToQueue)
    i.prvIdleTask                            0x00004f00   Section        0  tasks.o(i.prvIdleTask)
    prvIdleTask                              0x00004f01   Thumb Code    24  tasks.o(i.prvIdleTask)
    i.prvTaskExitError                       0x00004f1c   Section        0  port.o(i.prvTaskExitError)
    prvTaskExitError                         0x00004f1d   Thumb Code     6  port.o(i.prvTaskExitError)
    i.prvUnlockQueue                         0x00004f22   Section        0  queue.o(i.prvUnlockQueue)
    prvUnlockQueue                           0x00004f23   Thumb Code   100  queue.o(i.prvUnlockQueue)
    i.pvPortMalloc                           0x00004f86   Section        0  heap_3.o(i.pvPortMalloc)
    i.pxPortInitialiseStack                  0x00004fa4   Section        0  port.o(i.pxPortInitialiseStack)
    i.recv_tcp                               0x00004fc4   Section        0  api_msg.o(i.recv_tcp)
    recv_tcp                                 0x00004fc5   Thumb Code   128  api_msg.o(i.recv_tcp)
    i.recv_udp                               0x00005044   Section        0  api_msg.o(i.recv_udp)
    recv_udp                                 0x00005045   Thumb Code   130  api_msg.o(i.recv_udp)
    i.sent_tcp                               0x000050cc   Section        0  api_msg.o(i.sent_tcp)
    sent_tcp                                 0x000050cd   Thumb Code    88  api_msg.o(i.sent_tcp)
    i.setup_tcp                              0x00005124   Section        0  api_msg.o(i.setup_tcp)
    setup_tcp                                0x00005125   Thumb Code    50  api_msg.o(i.setup_tcp)
    i.smsc_update_phy_sts                    0x00005168   Section        0  lpc_phy_smsc87x0.o(i.smsc_update_phy_sts)
    smsc_update_phy_sts                      0x00005169   Thumb Code    94  lpc_phy_smsc87x0.o(i.smsc_update_phy_sts)
    i.sys_arch_mbox_fetch                    0x000051cc   Section        0  sys_arch_freertos.o(i.sys_arch_mbox_fetch)
    i.sys_arch_mbox_tryfetch                 0x00005228   Section        0  sys_arch_freertos.o(i.sys_arch_mbox_tryfetch)
    i.sys_arch_protect                       0x00005246   Section        0  sys_arch_freertos.o(i.sys_arch_protect)
    i.sys_arch_sem_wait                      0x00005250   Section        0  sys_arch_freertos.o(i.sys_arch_sem_wait)
    i.sys_arch_unprotect                     0x0000529e   Section        0  sys_arch_freertos.o(i.sys_arch_unprotect)
    i.sys_init                               0x000052a2   Section        0  sys_arch_freertos.o(i.sys_init)
    i.sys_mbox_free                          0x000052a4   Section        0  sys_arch_freertos.o(i.sys_mbox_free)
    i.sys_mbox_new                           0x000052b8   Section        0  sys_arch_freertos.o(i.sys_mbox_new)
    i.sys_mbox_post                          0x000052d6   Section        0  sys_arch_freertos.o(i.sys_mbox_post)
    i.sys_mbox_trypost                       0x000052f0   Section        0  sys_arch_freertos.o(i.sys_mbox_trypost)
    i.sys_mutex_lock                         0x0000530c   Section        0  sys_arch_freertos.o(i.sys_mutex_lock)
    i.sys_mutex_new                          0x00005326   Section        0  sys_arch_freertos.o(i.sys_mutex_new)
    i.sys_mutex_unlock                       0x0000533e   Section        0  sys_arch_freertos.o(i.sys_mutex_unlock)
    i.sys_sem_free                           0x0000534a   Section        0  sys_arch_freertos.o(i.sys_sem_free)
    i.sys_sem_new                            0x00005350   Section        0  sys_arch_freertos.o(i.sys_sem_new)
    i.sys_sem_signal                         0x00005388   Section        0  sys_arch_freertos.o(i.sys_sem_signal)
    i.sys_thread_new                         0x00005394   Section        0  sys_arch_freertos.o(i.sys_thread_new)
    i.sys_timeout                            0x000053c4   Section        0  timers.o(i.sys_timeout)
    i.sys_timeouts_init                      0x0000542c   Section        0  timers.o(i.sys_timeouts_init)
    i.sys_timeouts_mbox_fetch                0x00005474   Section        0  timers.o(i.sys_timeouts_mbox_fetch)
    i.sys_untimeout                          0x000054d4   Section        0  timers.o(i.sys_untimeout)
    i.tcp_abandon                            0x0000551c   Section        0  tcp.o(i.tcp_abandon)
    i.tcp_abort                              0x000055b8   Section        0  tcp.o(i.tcp_abort)
    i.tcp_accept                             0x000055be   Section        0  tcp.o(i.tcp_accept)
    i.tcp_accept_null                        0x000055c2   Section        0  tcp.o(i.tcp_accept_null)
    tcp_accept_null                          0x000055c3   Thumb Code     6  tcp.o(i.tcp_accept_null)
    i.tcp_alloc                              0x000055c8   Section        0  tcp.o(i.tcp_alloc)
    i.tcp_arg                                0x000056c8   Section        0  tcp.o(i.tcp_arg)
    i.tcp_bind                               0x000056cc   Section        0  tcp.o(i.tcp_bind)
    i.tcp_close                              0x00005754   Section        0  tcp.o(i.tcp_close)
    i.tcp_close_shutdown                     0x00005768   Section        0  tcp.o(i.tcp_close_shutdown)
    tcp_close_shutdown                       0x00005769   Thumb Code   292  tcp.o(i.tcp_close_shutdown)
    i.tcp_create_segment                     0x00005890   Section        0  tcp_out.o(i.tcp_create_segment)
    tcp_create_segment                       0x00005891   Thumb Code   176  tcp_out.o(i.tcp_create_segment)
    i.tcp_eff_send_mss                       0x00005944   Section        0  tcp.o(i.tcp_eff_send_mss)
    i.tcp_enqueue_flags                      0x00005964   Section        0  tcp_out.o(i.tcp_enqueue_flags)
    i.tcp_err                                0x00005a4e   Section        0  tcp.o(i.tcp_err)
    i.tcp_fasttmr                            0x00005a64   Section        0  tcp.o(i.tcp_fasttmr)
    i.tcp_init                               0x00005ac4   Section        0  tcp.o(i.tcp_init)
    i.tcp_input                              0x00005ac8   Section        0  tcp_in.o(i.tcp_input)
    i.tcp_keepalive                          0x00005e48   Section        0  tcp_out.o(i.tcp_keepalive)
    i.tcp_listen_input                       0x00005e98   Section        0  tcp_in.o(i.tcp_listen_input)
    tcp_listen_input                         0x00005e99   Thumb Code   208  tcp_in.o(i.tcp_listen_input)
    i.tcp_listen_with_backlog                0x00005f7c   Section        0  tcp.o(i.tcp_listen_with_backlog)
    i.tcp_new                                0x0000600c   Section        0  tcp.o(i.tcp_new)
    i.tcp_new_port                           0x00006014   Section        0  tcp.o(i.tcp_new_port)
    tcp_new_port                             0x00006015   Thumb Code    82  tcp.o(i.tcp_new_port)
    i.tcp_next_iss                           0x00006070   Section        0  tcp.o(i.tcp_next_iss)
    i.tcp_oos_insert_segment                 0x00006080   Section        0  tcp_in.o(i.tcp_oos_insert_segment)
    tcp_oos_insert_segment                   0x00006081   Thumb Code   114  tcp_in.o(i.tcp_oos_insert_segment)
    i.tcp_output                             0x000060f8   Section        0  tcp_out.o(i.tcp_output)
    i.tcp_output_alloc_header                0x00006298   Section        0  tcp_out.o(i.tcp_output_alloc_header)
    tcp_output_alloc_header                  0x00006299   Thumb Code   120  tcp_out.o(i.tcp_output_alloc_header)
    i.tcp_output_segment                     0x00006310   Section        0  tcp_out.o(i.tcp_output_segment)
    tcp_output_segment                       0x00006311   Thumb Code   258  tcp_out.o(i.tcp_output_segment)
    i.tcp_parseopt                           0x00006418   Section        0  tcp_in.o(i.tcp_parseopt)
    tcp_parseopt                             0x00006419   Thumb Code   122  tcp_in.o(i.tcp_parseopt)
    i.tcp_pbuf_prealloc                      0x00006498   Section        0  tcp_out.o(i.tcp_pbuf_prealloc)
    tcp_pbuf_prealloc                        0x00006499   Thumb Code    92  tcp_out.o(i.tcp_pbuf_prealloc)
    i.tcp_pcb_purge                          0x000064f4   Section        0  tcp.o(i.tcp_pcb_purge)
    i.tcp_pcb_remove                         0x00006538   Section        0  tcp.o(i.tcp_pcb_remove)
    i.tcp_poll                               0x000065ac   Section        0  tcp.o(i.tcp_poll)
    i.tcp_process                            0x000065c8   Section        0  tcp_in.o(i.tcp_process)
    tcp_process                              0x000065c9   Thumb Code   820  tcp_in.o(i.tcp_process)
    i.tcp_process_refused_data               0x0000691c   Section        0  tcp.o(i.tcp_process_refused_data)
    i.tcp_receive                            0x00006988   Section        0  tcp_in.o(i.tcp_receive)
    tcp_receive                              0x00006989   Thumb Code  1990  tcp_in.o(i.tcp_receive)
    i.tcp_recv                               0x00007154   Section        0  tcp.o(i.tcp_recv)
    i.tcp_recv_null                          0x0000716a   Section        0  tcp.o(i.tcp_recv_null)
    i.tcp_recved                             0x0000718e   Section        0  tcp.o(i.tcp_recved)
    i.tcp_rexmit                             0x000071e2   Section        0  tcp_out.o(i.tcp_rexmit)
    i.tcp_rexmit_fast                        0x00007234   Section        0  tcp_out.o(i.tcp_rexmit_fast)
    i.tcp_rexmit_rto                         0x0000728c   Section        0  tcp_out.o(i.tcp_rexmit_rto)
    i.tcp_rst                                0x000072ba   Section        0  tcp_out.o(i.tcp_rst)
    i.tcp_seg_add_chksum                     0x0000734c   Section        0  tcp_out.o(i.tcp_seg_add_chksum)
    tcp_seg_add_chksum                       0x0000734d   Thumb Code    30  tcp_out.o(i.tcp_seg_add_chksum)
    i.tcp_seg_copy                           0x0000736c   Section        0  tcp.o(i.tcp_seg_copy)
    i.tcp_seg_free                           0x00007398   Section        0  tcp.o(i.tcp_seg_free)
    i.tcp_segs_free                          0x000073b2   Section        0  tcp.o(i.tcp_segs_free)
    i.tcp_send_empty_ack                     0x000073c4   Section        0  tcp_out.o(i.tcp_send_empty_ack)
    i.tcp_send_fin                           0x00007420   Section        0  tcp_out.o(i.tcp_send_fin)
    i.tcp_sent                               0x00007464   Section        0  tcp.o(i.tcp_sent)
    i.tcp_shutdown                           0x00007478   Section        0  tcp.o(i.tcp_shutdown)
    i.tcp_slowtmr                            0x000074c8   Section        0  tcp.o(i.tcp_slowtmr)
    i.tcp_timer_needed                       0x00007790   Section        0  timers.o(i.tcp_timer_needed)
    i.tcp_timewait_input                     0x000077c4   Section        0  tcp_in.o(i.tcp_timewait_input)
    tcp_timewait_input                       0x000077c5   Thumb Code    92  tcp_in.o(i.tcp_timewait_input)
    i.tcp_tmr                                0x00007830   Section        0  tcp.o(i.tcp_tmr)
    i.tcp_update_rcv_ann_wnd                 0x00007850   Section        0  tcp.o(i.tcp_update_rcv_ann_wnd)
    i.tcp_write                              0x00007892   Section        0  tcp_out.o(i.tcp_write)
    i.tcp_write_checks                       0x00007c8c   Section        0  tcp_out.o(i.tcp_write_checks)
    tcp_write_checks                         0x00007c8d   Thumb Code    88  tcp_out.o(i.tcp_write_checks)
    i.tcp_zero_window_probe                  0x00007ce4   Section        0  tcp_out.o(i.tcp_zero_window_probe)
    i.tcpecho_init                           0x00007d84   Section        0  tcpecho.o(i.tcpecho_init)
    i.tcpecho_thread                         0x00007dac   Section        0  tcpecho.o(i.tcpecho_thread)
    tcpecho_thread                           0x00007dad   Thumb Code   114  tcpecho.o(i.tcpecho_thread)
    i.tcpip_apimsg                           0x00007e20   Section        0  tcpip.o(i.tcpip_apimsg)
    i.tcpip_callback_with_block              0x00007e5c   Section        0  tcpip.o(i.tcpip_callback_with_block)
    i.tcpip_init                             0x00007ec0   Section        0  tcpip.o(i.tcpip_init)
    i.tcpip_init_done_signal                 0x00007f0c   Section        0  lwip_tcpecho_freertos.o(i.tcpip_init_done_signal)
    tcpip_init_done_signal                   0x00007f0d   Thumb Code     6  lwip_tcpecho_freertos.o(i.tcpip_init_done_signal)
    i.tcpip_input                            0x00007f14   Section        0  tcpip.o(i.tcpip_input)
    i.tcpip_tcp_timer                        0x00007f64   Section        0  timers.o(i.tcpip_tcp_timer)
    tcpip_tcp_timer                          0x00007f65   Thumb Code    40  timers.o(i.tcpip_tcp_timer)
    i.tcpip_thread                           0x00007f9c   Section        0  tcpip.o(i.tcpip_thread)
    tcpip_thread                             0x00007f9d   Thumb Code   122  tcpip.o(i.tcpip_thread)
    i.udp_bind                               0x0000801c   Section        0  udp.o(i.udp_bind)
    i.udp_connect                            0x000080cc   Section        0  udp.o(i.udp_connect)
    i.udp_init                               0x00008118   Section        0  udp.o(i.udp_init)
    i.udp_input                              0x0000811c   Section        0  udp.o(i.udp_input)
    i.udp_new                                0x000082c8   Section        0  udp.o(i.udp_new)
    i.udp_recv                               0x000082e8   Section        0  udp.o(i.udp_recv)
    i.udp_remove                             0x000082f0   Section        0  udp.o(i.udp_remove)
    i.udp_sendto_if                          0x00008318   Section        0  udp.o(i.udp_sendto_if)
    i.udp_sendto_if_chksum                   0x0000832a   Section        0  udp.o(i.udp_sendto_if_chksum)
    i.uxListRemove                           0x0000844a   Section        0  list.o(i.uxListRemove)
    i.uxQueueMessagesWaiting                 0x0000846e   Section        0  queue.o(i.uxQueueMessagesWaiting)
    i.vApplicationIdleHook                   0x00008480   Section        0  freertoscommonhooks.o(i.vApplicationIdleHook)
    i.vApplicationMallocFailedHook           0x00008484   Section        0  freertoscommonhooks.o(i.vApplicationMallocFailedHook)
    i.vApplicationStackOverflowHook          0x000084b8   Section        0  freertoscommonhooks.o(i.vApplicationStackOverflowHook)
    i.vListInitialise                        0x000084f4   Section        0  list.o(i.vListInitialise)
    i.vListInitialiseItem                    0x0000850a   Section        0  list.o(i.vListInitialiseItem)
    i.vListInsert                            0x00008510   Section        0  list.o(i.vListInsert)
    i.vListInsertEnd                         0x00008540   Section        0  list.o(i.vListInsertEnd)
    i.vPacketReceiveTask                     0x00008558   Section        0  lpc17xx_40xx_emac.o(i.vPacketReceiveTask)
    vPacketReceiveTask                       0x00008559   Thumb Code    38  lpc17xx_40xx_emac.o(i.vPacketReceiveTask)
    i.vPortEnterCritical                     0x00008580   Section        0  port.o(i.vPortEnterCritical)
    i.vPortExitCritical                      0x0000859c   Section        0  port.o(i.vPortExitCritical)
    i.vPortFree                              0x000085b0   Section        0  heap_3.o(i.vPortFree)
    i.vPortSetupTimerInterrupt               0x000085cc   Section        0  port.o(i.vPortSetupTimerInterrupt)
    i.vPortYield                             0x000085ec   Section        0  port.o(i.vPortYield)
    i.vQueueDelete                           0x00008604   Section        0  queue.o(i.vQueueDelete)
    i.vQueueUnregisterQueue                  0x0000861c   Section        0  queue.o(i.vQueueUnregisterQueue)
    i.vSetupIFTask                           0x00008640   Section        0  lwip_tcpecho_freertos.o(i.vSetupIFTask)
    vSetupIFTask                             0x00008641   Thumb Code   300  lwip_tcpecho_freertos.o(i.vSetupIFTask)
    i.vTaskDelay                             0x000087e4   Section        0  tasks.o(i.vTaskDelay)
    i.vTaskMissedYield                       0x00008818   Section        0  tasks.o(i.vTaskMissedYield)
    i.vTaskPlaceOnEventList                  0x00008824   Section        0  tasks.o(i.vTaskPlaceOnEventList)
    i.vTaskPriorityDisinherit                0x00008860   Section        0  tasks.o(i.vTaskPriorityDisinherit)
    i.vTaskPriorityInherit                   0x000088a8   Section        0  tasks.o(i.vTaskPriorityInherit)
    i.vTaskSetTimeOutState                   0x0000890c   Section        0  tasks.o(i.vTaskSetTimeOutState)
    i.vTaskStartScheduler                    0x0000891c   Section        0  tasks.o(i.vTaskStartScheduler)
    i.vTaskSuspendAll                        0x00008960   Section        0  tasks.o(i.vTaskSuspendAll)
    i.vTaskSwitchContext                     0x00008970   Section        0  tasks.o(i.vTaskSwitchContext)
    i.vTransmitCleanupTask                   0x000089d8   Section        0  lpc17xx_40xx_emac.o(i.vTransmitCleanupTask)
    vTransmitCleanupTask                     0x000089d9   Thumb Code   104  lpc17xx_40xx_emac.o(i.vTransmitCleanupTask)
    i.xPortStartScheduler                    0x00008a44   Section        0  port.o(i.xPortStartScheduler)
    i.xQueueCreateCountingSemaphore          0x00008a74   Section        0  queue.o(i.xQueueCreateCountingSemaphore)
    i.xQueueCreateMutex                      0x00008a88   Section        0  queue.o(i.xQueueCreateMutex)
    i.xQueueGenericCreate                    0x00008ad2   Section        0  queue.o(i.xQueueGenericCreate)
    i.xQueueGenericReceive                   0x00008b1a   Section        0  queue.o(i.xQueueGenericReceive)
    i.xQueueGenericReset                     0x00008c1c   Section        0  queue.o(i.xQueueGenericReset)
    i.xQueueGenericSend                      0x00008c7c   Section        0  queue.o(i.xQueueGenericSend)
    i.xQueueGenericSendFromISR               0x00008d52   Section        0  queue.o(i.xQueueGenericSendFromISR)
    i.xTaskCheckForTimeOut                   0x00008db4   Section        0  tasks.o(i.xTaskCheckForTimeOut)
    i.xTaskGenericCreate                     0x00008dfc   Section        0  tasks.o(i.xTaskGenericCreate)
    i.xTaskGetCurrentTaskHandle              0x00008f64   Section        0  tasks.o(i.xTaskGetCurrentTaskHandle)
    i.xTaskGetTickCount                      0x00008f70   Section        0  tasks.o(i.xTaskGetTickCount)
    i.xTaskIncrementTick                     0x00008f88   Section        0  tasks.o(i.xTaskIncrementTick)
    i.xTaskRemoveFromEventList               0x0000904c   Section        0  tasks.o(i.xTaskRemoveFromEventList)
    i.xTaskResumeAll                         0x000090a8   Section        0  tasks.o(i.xTaskResumeAll)
    .constdata                               0x00009144   Section       84  tcp.o(.constdata)
    .constdata                               0x00009198   Section       26  memp.o(.constdata)
    .constdata                               0x000091b4   Section        4  ip_addr.o(.constdata)
    .constdata                               0x000091b8   Section        4  ip_addr.o(.constdata)
    .constdata                               0x000091bc   Section       12  etharp.o(.constdata)
    .constdata                               0x000091c8   Section        4  board.o(.constdata)
    .constdata                               0x000091cc   Section        4  board.o(.constdata)
    .constdata                               0x000091d0   Section       92  board_sysinit.o(.constdata)
    pinmuxing                                0x000091d0   Data          92  board_sysinit.o(.constdata)
    .constdata                               0x0000922c   Section       15  enet_17xx_40xx.o(.constdata)
    EnetClkDiv                               0x0000922c   Data          15  enet_17xx_40xx.o(.constdata)
    .conststring                             0x0000923c   Section      117  tcp.o(.conststring)
    HEAP                                     0x10000000   Section    24576  keil_startup_lpc17xx_40xx.o(HEAP)
    Heap_Mem                                 0x10000000   Data       24576  keil_startup_lpc17xx_40xx.o(HEAP)
    .data                                    0x2007c000   Section        4  lwip_tcpecho_freertos.o(.data)
    prt_ip                                   0x2007c000   Data           4  lwip_tcpecho_freertos.o(.data)
    .data                                    0x2007c004   Section        4  port.o(.data)
    uxCriticalNesting                        0x2007c004   Data           4  port.o(.data)
    .data                                    0x2007c008   Section       56  tasks.o(.data)
    uxTasksDeleted                           0x2007c00c   Data           4  tasks.o(.data)
    uxCurrentNumberOfTasks                   0x2007c010   Data           4  tasks.o(.data)
    xTickCount                               0x2007c014   Data           4  tasks.o(.data)
    uxTopReadyPriority                       0x2007c018   Data           4  tasks.o(.data)
    xSchedulerRunning                        0x2007c01c   Data           4  tasks.o(.data)
    uxSchedulerSuspended                     0x2007c020   Data           4  tasks.o(.data)
    uxPendedTicks                            0x2007c024   Data           4  tasks.o(.data)
    xYieldPending                            0x2007c028   Data           4  tasks.o(.data)
    xNumOfOverflows                          0x2007c02c   Data           4  tasks.o(.data)
    uxTaskNumber                             0x2007c030   Data           4  tasks.o(.data)
    xNextTaskUnblockTime                     0x2007c034   Data           4  tasks.o(.data)
    pxDelayedTaskList                        0x2007c038   Data           4  tasks.o(.data)
    pxOverflowDelayedTaskList                0x2007c03c   Data           4  tasks.o(.data)
    .data                                    0x2007c040   Section        8  udp.o(.data)
    udp_port                                 0x2007c040   Data           2  udp.o(.data)
    .data                                    0x2007c048   Section        8  timers.o(.data)
    next_timeout                             0x2007c048   Data           4  timers.o(.data)
    tcpip_tcp_timer_active                   0x2007c04c   Data           4  timers.o(.data)
    .data                                    0x2007c050   Section       28  tcp_in.o(.data)
    flags                                    0x2007c050   Data           1  tcp_in.o(.data)
    recv_flags                               0x2007c051   Data           1  tcp_in.o(.data)
    tcplen                                   0x2007c052   Data           2  tcp_in.o(.data)
    tcphdr                                   0x2007c054   Data           4  tcp_in.o(.data)
    iphdr                                    0x2007c058   Data           4  tcp_in.o(.data)
    seqno                                    0x2007c05c   Data           4  tcp_in.o(.data)
    ackno                                    0x2007c060   Data           4  tcp_in.o(.data)
    recv_data                                0x2007c064   Data           4  tcp_in.o(.data)
    .data                                    0x2007c06c   Section       36  tcp.o(.data)
    tcp_timer                                0x2007c06d   Data           1  tcp.o(.data)
    tcp_timer_ctr                            0x2007c06e   Data           1  tcp.o(.data)
    tcp_port                                 0x2007c070   Data           2  tcp.o(.data)
    iss                                      0x2007c074   Data           4  tcp.o(.data)
    .data                                    0x2007c090   Section        1  pbuf.o(.data)
    .data                                    0x2007c094   Section       12  netif.o(.data)
    netif_num                                0x2007c094   Data           1  netif.o(.data)
    .data                                    0x2007c0a0   Section        4  dhcp.o(.data)
    xid                                      0x2007c0a0   Data           4  dhcp.o(.data)
    .data                                    0x2007c0a4   Section        8  ip_frag.o(.data)
    ip_reass_pbufcount                       0x2007c0a4   Data           2  ip_frag.o(.data)
    reassdatagrams                           0x2007c0a8   Data           4  ip_frag.o(.data)
    .data                                    0x2007c0ac   Section       20  ip.o(.data)
    ip_id                                    0x2007c0ac   Data           2  ip.o(.data)
    .data                                    0x2007c0c0   Section        1  etharp.o(.data)
    etharp_cached_entry                      0x2007c0c0   Data           1  etharp.o(.data)
    .data                                    0x2007c0c4   Section       12  tcpip.o(.data)
    tcpip_init_done                          0x2007c0c4   Data           4  tcpip.o(.data)
    tcpip_init_done_arg                      0x2007c0c8   Data           4  tcpip.o(.data)
    mbox                                     0x2007c0cc   Data           4  tcpip.o(.data)
    .data                                    0x2007c0d0   Section       20  lpc_phy_smsc87x0.o(.data)
    sts                                      0x2007c0d0   Data           2  lpc_phy_smsc87x0.o(.data)
    physts                                   0x2007c0d4   Data           4  lpc_phy_smsc87x0.o(.data)
    olddphysts                               0x2007c0d8   Data           4  lpc_phy_smsc87x0.o(.data)
    phyustate                                0x2007c0dc   Data           4  lpc_phy_smsc87x0.o(.data)
    pDelayMs                                 0x2007c0e0   Data           4  lpc_phy_smsc87x0.o(.data)
    .data                                    0x2007c0e4   Section        4  board.o(.data)
    .data                                    0x2007c0e8   Section        4  enet_17xx_40xx.o(.data)
    phyAddr                                  0x2007c0e8   Data           4  enet_17xx_40xx.o(.data)
    .data                                    0x2007c0ec   Section        4  chip_17xx_40xx.o(.data)
    .bss                                     0x2007c0f0   Section       72  lwip_tcpecho_freertos.o(.bss)
    tmp_buff                                 0x2007c0f0   Data          16  lwip_tcpecho_freertos.o(.bss)
    lpc_netif                                0x2007c100   Data          56  lwip_tcpecho_freertos.o(.bss)
    .bss                                     0x2007c138   Section       80  queue.o(.bss)
    .bss                                     0x2007c188   Section      200  tasks.o(.bss)
    pxReadyTasksLists                        0x2007c188   Data         100  tasks.o(.bss)
    xDelayedTaskList1                        0x2007c1ec   Data          20  tasks.o(.bss)
    xDelayedTaskList2                        0x2007c200   Data          20  tasks.o(.bss)
    xPendingReadyList                        0x2007c214   Data          20  tasks.o(.bss)
    xTasksWaitingTermination                 0x2007c228   Data          20  tasks.o(.bss)
    xSuspendedTaskList                       0x2007c23c   Data          20  tasks.o(.bss)
    .bss                                     0x2007c250   Section       20  tcp_in.o(.bss)
    inseg                                    0x2007c250   Data          20  tcp_in.o(.bss)
    .bss                                     0x2007c264   Section       50  dhcp.o(.bss)
    .bss                                     0x2007c298   Section      200  etharp.o(.bss)
    arp_table                                0x2007c298   Data         200  etharp.o(.bss)
    .bss                                     0x2007c360   Section      180  lpc17xx_40xx_emac.o(.bss)
    .bss                                     0x2007c414   Section       96  libspace.o(.bss)
    STACK                                    0x2007c478   Section     4096  keil_startup_lpc17xx_40xx.o(STACK)
    Stack_Mem                                0x2007c478   Data        4096  keil_startup_lpc17xx_40xx.o(STACK)
    __initial_sp                             0x2007d478   Data           0  keil_startup_lpc17xx_40xx.o(STACK)

    Global Symbols

    Symbol Name                              Value     Ov Type        Size  Object(Section)

    BuildAttributes$$THM_ISAv4$P$D$K$B$S$PE$A:L22UL41UL21$X:L11$S22US41US21$IEEE1$IW$USESV6$~STKCKD$USESV7$~SHL$OTIME$ROPI$EBA8$UX$STANDARDLIB$REQ8$PRES8$EABIv2 0x00000000   Number         0  anon$$obj.o ABSOLUTE
    __ARM_use_no_argv                        0x00000000   Number         0  lwip_tcpecho_freertos.o ABSOLUTE
    __Vectors                                0x00000000   Data           4  keil_startup_lpc17xx_40xx.o(RESET)
    __ARM_exceptions_init                     - Undefined Weak Reference
    __alloca_initialize                       - Undefined Weak Reference
    __arm_preinit_                            - Undefined Weak Reference
    __cpp_initialize__aeabi_                  - Undefined Weak Reference
    __cxa_finalize                            - Undefined Weak Reference
    __rt_locale                               - Undefined Weak Reference
    __sigvec_lookup                           - Undefined Weak Reference
    __user_heap_extent                        - Undefined Weak Reference
    _atexit_init                              - Undefined Weak Reference
    _call_atexit_fns                          - Undefined Weak Reference
    _clock_init                               - Undefined Weak Reference
    _fp_trap_init                             - Undefined Weak Reference
    _fp_trap_shutdown                         - Undefined Weak Reference
    _get_lc_collate                           - Undefined Weak Reference
    _get_lc_ctype                             - Undefined Weak Reference
    _get_lc_monetary                          - Undefined Weak Reference
    _get_lc_numeric                           - Undefined Weak Reference
    _get_lc_time                              - Undefined Weak Reference
    _getenv_init                              - Undefined Weak Reference
    _handle_redirection                       - Undefined Weak Reference
    _initio                                   - Undefined Weak Reference
    _mutex_acquire                            - Undefined Weak Reference
    _mutex_free                               - Undefined Weak Reference
    _mutex_release                            - Undefined Weak Reference
    _printf_mbtowc                            - Undefined Weak Reference
    _printf_post_padding                      - Undefined Weak Reference
    _printf_pre_padding                       - Undefined Weak Reference
    _printf_truncate_signed                   - Undefined Weak Reference
    _printf_truncate_unsigned                 - Undefined Weak Reference
    _rand_init                                - Undefined Weak Reference
    _signal_finish                            - Undefined Weak Reference
    _signal_init                              - Undefined Weak Reference
    _terminateio                              - Undefined Weak Reference
    __main                                   0x000000cd   Thumb Code     8  __main.o(!!!main)
    __scatterload                            0x000000d5   Thumb Code     0  __scatter.o(!!!scatter)
    __scatterload_rt2                        0x000000d5   Thumb Code    44  __scatter.o(!!!scatter)
    __scatterload_rt2_thumb_only             0x000000d5   Thumb Code     0  __scatter.o(!!!scatter)
    __scatterload_null                       0x000000e3   Thumb Code     0  __scatter.o(!!!scatter)
    __scatterload_copy                       0x00000109   Thumb Code    26  __scatter_copy.o(!!handler_copy)
    __scatterload_zeroinit                   0x00000125   Thumb Code    28  __scatter_zi.o(!!handler_zi)
    _printf_d                                0x00000141   Thumb Code     0  _printf_d.o(.ARM.Collect$$_printf_percent$$00000009)
    _printf_percent                          0x00000141   Thumb Code     0  _printf_percent.o(.ARM.Collect$$_printf_percent$$00000000)
    _printf_s                                0x00000147   Thumb Code     0  _printf_s.o(.ARM.Collect$$_printf_percent$$00000014)
    _printf_percent_end                      0x0000014d   Thumb Code     0  _printf_percent_end.o(.ARM.Collect$$_printf_percent$$00000017)
    __rt_lib_init                            0x00000151   Thumb Code     0  libinit.o(.ARM.Collect$$libinit$$00000000)
    __rt_lib_init_fp_1                       0x00000153   Thumb Code     0  libinit2.o(.ARM.Collect$$libinit$$00000002)
    __rt_lib_init_heap_2                     0x00000153   Thumb Code     0  libinit2.o(.ARM.Collect$$libinit$$00000005)
    __rt_lib_init_preinit_1                  0x00000153   Thumb Code     0  libinit2.o(.ARM.Collect$$libinit$$00000004)
    __rt_lib_init_alloca_1                   0x0000015b   Thumb Code     0  libinit2.o(.ARM.Collect$$libinit$$0000002E)
    __rt_lib_init_argv_1                     0x0000015b   Thumb Code     0  libinit2.o(.ARM.Collect$$libinit$$0000002C)
    __rt_lib_init_atexit_1                   0x0000015b   Thumb Code     0  libinit2.o(.ARM.Collect$$libinit$$0000001B)
    __rt_lib_init_clock_1                    0x0000015b   Thumb Code     0  libinit2.o(.ARM.Collect$$libinit$$00000021)
    __rt_lib_init_cpp_1                      0x0000015b   Thumb Code     0  libinit2.o(.ARM.Collect$$libinit$$00000032)
    __rt_lib_init_exceptions_1               0x0000015b   Thumb Code     0  libinit2.o(.ARM.Collect$$libinit$$00000030)
    __rt_lib_init_fp_trap_1                  0x0000015b   Thumb Code     0  libinit2.o(.ARM.Collect$$libinit$$0000001F)
    __rt_lib_init_getenv_1                   0x0000015b   Thumb Code     0  libinit2.o(.ARM.Collect$$libinit$$00000023)
    __rt_lib_init_heap_1                     0x0000015b   Thumb Code     0  libinit2.o(.ARM.Collect$$libinit$$0000000A)
    __rt_lib_init_lc_collate_1               0x0000015b   Thumb Code     0  libinit2.o(.ARM.Collect$$libinit$$00000011)
    __rt_lib_init_lc_ctype_1                 0x0000015b   Thumb Code     0  libinit2.o(.ARM.Collect$$libinit$$00000013)
    __rt_lib_init_lc_monetary_1              0x0000015b   Thumb Code     0  libinit2.o(.ARM.Collect$$libinit$$00000015)
    __rt_lib_init_lc_numeric_1               0x0000015b   Thumb Code     0  libinit2.o(.ARM.Collect$$libinit$$00000017)
    __rt_lib_init_lc_time_1                  0x0000015b   Thumb Code     0  libinit2.o(.ARM.Collect$$libinit$$00000019)
    __rt_lib_init_rand_1                     0x0000015b   Thumb Code     0  libinit2.o(.ARM.Collect$$libinit$$0000000E)
    __rt_lib_init_return                     0x0000015b   Thumb Code     0  libinit2.o(.ARM.Collect$$libinit$$00000033)
    __rt_lib_init_signal_1                   0x0000015b   Thumb Code     0  libinit2.o(.ARM.Collect$$libinit$$0000001D)
    __rt_lib_init_stdio_1                    0x0000015b   Thumb Code     0  libinit2.o(.ARM.Collect$$libinit$$00000025)
    __rt_lib_init_user_alloc_1               0x0000015b   Thumb Code     0  libinit2.o(.ARM.Collect$$libinit$$0000000C)
    __rt_lib_shutdown                        0x0000015d   Thumb Code     0  libshutdown.o(.ARM.Collect$$libshutdown$$00000000)
    __rt_lib_shutdown_cpp_1                  0x0000015f   Thumb Code     0  libshutdown2.o(.ARM.Collect$$libshutdown$$00000002)
    __rt_lib_shutdown_fp_trap_1              0x0000015f   Thumb Code     0  libshutdown2.o(.ARM.Collect$$libshutdown$$00000007)
    __rt_lib_shutdown_heap_1                 0x0000015f   Thumb Code     0  libshutdown2.o(.ARM.Collect$$libshutdown$$0000000F)
    __rt_lib_shutdown_return                 0x0000015f   Thumb Code     0  libshutdown2.o(.ARM.Collect$$libshutdown$$00000010)
    __rt_lib_shutdown_signal_1               0x0000015f   Thumb Code     0  libshutdown2.o(.ARM.Collect$$libshutdown$$0000000A)
    __rt_lib_shutdown_stdio_1                0x0000015f   Thumb Code     0  libshutdown2.o(.ARM.Collect$$libshutdown$$00000004)
    __rt_lib_shutdown_user_alloc_1           0x0000015f   Thumb Code     0  libshutdown2.o(.ARM.Collect$$libshutdown$$0000000C)
    __rt_entry                               0x00000161   Thumb Code     0  __rtentry.o(.ARM.Collect$$rtentry$$00000000)
    __rt_entry_presh_1                       0x00000161   Thumb Code     0  __rtentry2.o(.ARM.Collect$$rtentry$$00000002)
    __rt_entry_sh                            0x00000161   Thumb Code     0  __rtentry4.o(.ARM.Collect$$rtentry$$00000004)
    __rt_entry_li                            0x00000167   Thumb Code     0  __rtentry2.o(.ARM.Collect$$rtentry$$0000000A)
    __rt_entry_postsh_1                      0x00000167   Thumb Code     0  __rtentry2.o(.ARM.Collect$$rtentry$$00000009)
    __rt_entry_main                          0x0000016b   Thumb Code     0  __rtentry2.o(.ARM.Collect$$rtentry$$0000000D)
    __rt_entry_postli_1                      0x0000016b   Thumb Code     0  __rtentry2.o(.ARM.Collect$$rtentry$$0000000C)
    __rt_exit                                0x00000173   Thumb Code     0  rtexit.o(.ARM.Collect$$rtexit$$00000000)
    __rt_exit_ls                             0x00000175   Thumb Code     0  rtexit2.o(.ARM.Collect$$rtexit$$00000003)
    __rt_exit_prels_1                        0x00000175   Thumb Code     0  rtexit2.o(.ARM.Collect$$rtexit$$00000002)
    __rt_exit_exit                           0x00000179   Thumb Code     0  rtexit2.o(.ARM.Collect$$rtexit$$00000004)
    SVC_Handler                              0x00000181   Thumb Code    28  port.o(.emb_text)
    __asm___6_port_c_39a90d8d__prvStartFirstTask 0x000001a1   Thumb Code    16  port.o(.emb_text)
    PendSV_Handler                           0x000001b5   Thumb Code    56  port.o(.emb_text)
    ulPortSetInterruptMask                   0x000001f1   Thumb Code    14  port.o(.emb_text)
    vPortClearInterruptMask                  0x000001ff   Thumb Code     6  port.o(.emb_text)
    vPortGetIPSR                             0x00000205   Thumb Code     6  port.o(.emb_text)
    Reset_Handler                            0x0000020d   Thumb Code     8  keil_startup_lpc17xx_40xx.o(.text)
    _maybe_terminate_alloc                   0x0000020d   Thumb Code     0  maybetermalloc1.o(.emb_text)
    NMI_Handler                              0x00000215   Thumb Code     2  keil_startup_lpc17xx_40xx.o(.text)
    HardFault_Handler                        0x00000217   Thumb Code     2  keil_startup_lpc17xx_40xx.o(.text)
    MemManage_Handler                        0x00000219   Thumb Code     2  keil_startup_lpc17xx_40xx.o(.text)
    BusFault_Handler                         0x0000021b   Thumb Code     2  keil_startup_lpc17xx_40xx.o(.text)
    UsageFault_Handler                       0x0000021d   Thumb Code     2  keil_startup_lpc17xx_40xx.o(.text)
    DebugMon_Handler                         0x00000221   Thumb Code     2  keil_startup_lpc17xx_40xx.o(.text)
    UnHandled_Vector                         0x00000227   Thumb Code     2  keil_startup_lpc17xx_40xx.o(.text)
    ADC_IRQHandler                           0x00000229   Thumb Code     0  keil_startup_lpc17xx_40xx.o(.text)
    BOD_IRQHandler                           0x00000229   Thumb Code     0  keil_startup_lpc17xx_40xx.o(.text)
    CANActivity_IRQHandler                   0x00000229   Thumb Code     0  keil_startup_lpc17xx_40xx.o(.text)
    CAN_IRQHandler                           0x00000229   Thumb Code     0  keil_startup_lpc17xx_40xx.o(.text)
    DMA_IRQHandler                           0x00000229   Thumb Code     0  keil_startup_lpc17xx_40xx.o(.text)
    EINT0_IRQHandler                         0x00000229   Thumb Code     0  keil_startup_lpc17xx_40xx.o(.text)
    EINT1_IRQHandler                         0x00000229   Thumb Code     0  keil_startup_lpc17xx_40xx.o(.text)
    EINT2_IRQHandler                         0x00000229   Thumb Code     0  keil_startup_lpc17xx_40xx.o(.text)
    EINT3_IRQHandler                         0x00000229   Thumb Code     0  keil_startup_lpc17xx_40xx.o(.text)
    I2C0_IRQHandler                          0x00000229   Thumb Code     0  keil_startup_lpc17xx_40xx.o(.text)
    I2C1_IRQHandler                          0x00000229   Thumb Code     0  keil_startup_lpc17xx_40xx.o(.text)
    I2C2_IRQHandler                          0x00000229   Thumb Code     0  keil_startup_lpc17xx_40xx.o(.text)
    I2S_IRQHandler                           0x00000229   Thumb Code     0  keil_startup_lpc17xx_40xx.o(.text)
    MCPWM_IRQHandler                         0x00000229   Thumb Code     0  keil_startup_lpc17xx_40xx.o(.text)
    PLL0_IRQHandler                          0x00000229   Thumb Code     0  keil_startup_lpc17xx_40xx.o(.text)
    PLL1_IRQHandler                          0x00000229   Thumb Code     0  keil_startup_lpc17xx_40xx.o(.text)
    PWM1_IRQHandler                          0x00000229   Thumb Code     0  keil_startup_lpc17xx_40xx.o(.text)
    QEI_IRQHandler                           0x00000229   Thumb Code     0  keil_startup_lpc17xx_40xx.o(.text)
    RIT_IRQHandler                           0x00000229   Thumb Code     0  keil_startup_lpc17xx_40xx.o(.text)
    RTC_IRQHandler                           0x00000229   Thumb Code     0  keil_startup_lpc17xx_40xx.o(.text)
    SPI_IRQHandler                           0x00000229   Thumb Code     0  keil_startup_lpc17xx_40xx.o(.text)
    SSP0_IRQHandler                          0x00000229   Thumb Code     0  keil_startup_lpc17xx_40xx.o(.text)
    SSP1_IRQHandler                          0x00000229   Thumb Code     0  keil_startup_lpc17xx_40xx.o(.text)
    TIMER0_IRQHandler                        0x00000229   Thumb Code     0  keil_startup_lpc17xx_40xx.o(.text)
    TIMER1_IRQHandler                        0x00000229   Thumb Code     0  keil_startup_lpc17xx_40xx.o(.text)
    TIMER2_IRQHandler                        0x00000229   Thumb Code     0  keil_startup_lpc17xx_40xx.o(.text)
    TIMER3_IRQHandler                        0x00000229   Thumb Code     0  keil_startup_lpc17xx_40xx.o(.text)
    UART0_IRQHandler                         0x00000229   Thumb Code     0  keil_startup_lpc17xx_40xx.o(.text)
    UART1_IRQHandler                         0x00000229   Thumb Code     0  keil_startup_lpc17xx_40xx.o(.text)
    UART2_IRQHandler                         0x00000229   Thumb Code     0  keil_startup_lpc17xx_40xx.o(.text)
    UART3_IRQHandler                         0x00000229   Thumb Code     0  keil_startup_lpc17xx_40xx.o(.text)
    USBActivity_IRQHandler                   0x00000229   Thumb Code     0  keil_startup_lpc17xx_40xx.o(.text)
    USB_IRQHandler                           0x00000229   Thumb Code     0  keil_startup_lpc17xx_40xx.o(.text)
    WDT_IRQHandler                           0x00000229   Thumb Code     0  keil_startup_lpc17xx_40xx.o(.text)
    __user_initial_stackheap                 0x0000022d   Thumb Code     0  keil_startup_lpc17xx_40xx.o(.text)
    malloc                                   0x00000251   Thumb Code    94  h1_alloc.o(.text)
    free                                     0x000002af   Thumb Code    78  h1_free.o(.text)
    __2printf                                0x000002fd   Thumb Code    20  noretval__2printf.o(.text)
    __printf                                 0x00000315   Thumb Code   104  __printf.o(.text)
    _printf_str                              0x0000037d   Thumb Code    82  _printf_str.o(.text)
    _printf_int_dec                          0x000003d1   Thumb Code   104  _printf_dec.o(.text)
    memcmp                                   0x00000449   Thumb Code    88  memcmp.o(.text)
    strlen                                   0x000004a1   Thumb Code    62  strlen.o(.text)
    __aeabi_memcpy                           0x000004df   Thumb Code     0  rt_memcpy_v6.o(.text)
    __rt_memcpy                              0x000004df   Thumb Code   138  rt_memcpy_v6.o(.text)
    _memcpy_lastbytes                        0x00000545   Thumb Code     0  rt_memcpy_v6.o(.text)
    __aeabi_memcpy4                          0x00000569   Thumb Code     0  rt_memcpy_w.o(.text)
    __aeabi_memcpy8                          0x00000569   Thumb Code     0  rt_memcpy_w.o(.text)
    __rt_memcpy_w                            0x00000569   Thumb Code   100  rt_memcpy_w.o(.text)
    _memcpy_lastbytes_aligned                0x000005b1   Thumb Code     0  rt_memcpy_w.o(.text)
    __aeabi_memset                           0x000005cd   Thumb Code    16  aeabi_memset.o(.text)
    __aeabi_memclr4                          0x000005dd   Thumb Code     0  rt_memclr_w.o(.text)
    __aeabi_memclr8                          0x000005dd   Thumb Code     0  rt_memclr_w.o(.text)
    __rt_memclr_w                            0x000005dd   Thumb Code    78  rt_memclr_w.o(.text)
    _memset_w                                0x000005e1   Thumb Code     0  rt_memclr_w.o(.text)
    __use_two_region_memory                  0x0000062b   Thumb Code     2  heapauxi.o(.text)
    __rt_heap_escrow                         0x0000062d   Thumb Code     2  heapauxi.o(.text)
    __rt_heap_expand                         0x0000062f   Thumb Code     2  heapauxi.o(.text)
    __rt_heap_descriptor                     0x00000631   Thumb Code     8  rt_heap_descriptor_intlibspace.o(.text)
    __use_no_heap                            0x00000639   Thumb Code     2  hguard.o(.text)
    __heap$guard                             0x0000063b   Thumb Code     2  hguard.o(.text)
    _terminate_user_alloc                    0x0000063d   Thumb Code     2  init_alloc.o(.text)
    _init_user_alloc                         0x0000063f   Thumb Code     2  init_alloc.o(.text)
    __Heap_Full                              0x00000641   Thumb Code    34  init_alloc.o(.text)
    __Heap_Broken                            0x00000663   Thumb Code     6  init_alloc.o(.text)
    _init_alloc                              0x00000669   Thumb Code    94  init_alloc.o(.text)
    __Heap_Initialize                        0x000006c7   Thumb Code    10  h1_init.o(.text)
    __Heap_DescSize                          0x000006d1   Thumb Code     4  h1_init.o(.text)
    _printf_int_common                       0x000006d5   Thumb Code   178  _printf_intcommon.o(.text)
    _printf_cs_common                        0x00000787   Thumb Code    20  _printf_char.o(.text)
    _printf_char                             0x0000079b   Thumb Code    16  _printf_char.o(.text)
    _printf_string                           0x000007ab   Thumb Code     8  _printf_char.o(.text)
    _printf_char_file                        0x000007b5   Thumb Code    32  _printf_char_file.o(.text)
    __aeabi_memclr                           0x000007d9   Thumb Code     0  rt_memclr.o(.text)
    __rt_memclr                              0x000007d9   Thumb Code    68  rt_memclr.o(.text)
    _memset                                  0x000007dd   Thumb Code     0  rt_memclr.o(.text)
    __user_libspace                          0x0000081d   Thumb Code     8  libspace.o(.text)
    __user_perproc_libspace                  0x0000081d   Thumb Code     0  libspace.o(.text)
    __user_perthread_libspace                0x0000081d   Thumb Code     0  libspace.o(.text)
    __Heap_ProvideMemory                     0x00000825   Thumb Code    52  h1_extend.o(.text)
    _printf_char_common                      0x00000863   Thumb Code    32  _printf_char_common.o(.text)
    __rt_SIGRTMEM                            0x00000889   Thumb Code    14  defsig_rtmem_outer.o(.text)
    __I$use$semihosting                      0x00000897   Thumb Code     0  use_no_semi.o(.text)
    __use_no_semihosting_swi                 0x00000897   Thumb Code     2  use_no_semi.o(.text)
    __semihosting_library_function           0x00000899   Thumb Code     0  indicate_semi.o(.text)
    __user_setup_stackheap                   0x00000899   Thumb Code    74  sys_stackheap_outer.o(.text)
    exit                                     0x000008e3   Thumb Code    18  exit.o(.text)
    __sig_exit                               0x000008f5   Thumb Code    10  defsig_exit.o(.text)
    __rt_SIGRTMEM_inner                      0x00000901   Thumb Code    22  defsig_rtmem_inner.o(.text)
    __default_signal_display                 0x00000951   Thumb Code    50  defsig_general.o(.text)
    _ttywrch                                 0x00000983   Thumb Code    14  sys_wrch.o(.text)
    Board_Debug_Init                         0x00000991   Thumb Code    34  board.o(i.Board_Debug_Init)
    Board_ENET_GetMacADDR                    0x000009b9   Thumb Code    22  board.o(i.Board_ENET_GetMacADDR)
    Board_Init                               0x000009d9   Thumb Code    34  board.o(i.Board_Init)
    Board_LED_Set                            0x00000a01   Thumb Code    18  board.o(i.Board_LED_Set)
    Board_SetupClocking                      0x00000a19   Thumb Code    22  board_sysinit.o(i.Board_SetupClocking)
    Board_SetupMuxing                        0x00000a35   Thumb Code    10  board_sysinit.o(i.Board_SetupMuxing)
    Board_SystemInit                         0x00000a49   Thumb Code    14  board_sysinit.o(i.Board_SystemInit)
    Board_UARTPutChar                        0x00000a59   Thumb Code    12  board.o(i.Board_UARTPutChar)
    Board_UARTPutSTR                         0x00000a69   Thumb Code    20  board.o(i.Board_UARTPutSTR)
    Chip_Clock_DisablePLL                    0x00000a7d   Thumb Code    18  clock_17xx_40xx.o(i.Chip_Clock_DisablePLL)
    Chip_Clock_EnablePLL                     0x00000a95   Thumb Code    18  clock_17xx_40xx.o(i.Chip_Clock_EnablePLL)
    Chip_Clock_EnablePeriphClock             0x00000aad   Thumb Code    16  clock_17xx_40xx.o(i.Chip_Clock_EnablePeriphClock)
    Chip_Clock_GetCPUClockDiv                0x00000ad9   Thumb Code    12  clock_17xx_40xx.o(i.Chip_Clock_GetCPUClockDiv)
    Chip_Clock_GetCPUClockSource             0x00000ae9   Thumb Code    18  clock_17xx_40xx.o(i.Chip_Clock_GetCPUClockSource)
    Chip_Clock_GetMainClockRate              0x00000b01   Thumb Code    32  clock_17xx_40xx.o(i.Chip_Clock_GetMainClockRate)
    Chip_Clock_GetMainPLLOutClockRate        0x00000b21   Thumb Code    50  clock_17xx_40xx.o(i.Chip_Clock_GetMainPLLOutClockRate)
    Chip_Clock_GetPCLKDiv                    0x00000b59   Thumb Code    60  clock_17xx_40xx.o(i.Chip_Clock_GetPCLKDiv)
    Chip_Clock_GetPeripheralClockRate        0x00000b99   Thumb Code    22  clock_17xx_40xx.o(i.Chip_Clock_GetPeripheralClockRate)
    Chip_Clock_GetSYSCLKRate                 0x00000bb1   Thumb Code    38  clock_17xx_40xx.o(i.Chip_Clock_GetSYSCLKRate)
    Chip_Clock_GetSystemClockRate            0x00000be9   Thumb Code    18  clock_17xx_40xx.o(i.Chip_Clock_GetSystemClockRate)
    Chip_Clock_SetCPUClockDiv                0x00000bfd   Thumb Code     8  clock_17xx_40xx.o(i.Chip_Clock_SetCPUClockDiv)
    Chip_Clock_SetupPLL                      0x00000c09   Thumb Code    32  clock_17xx_40xx.o(i.Chip_Clock_SetupPLL)
    Chip_ENET_FindMIIDiv                     0x00000c2d   Thumb Code    36  enet_17xx_40xx.o(i.Chip_ENET_FindMIIDiv)
    Chip_ENET_GetFillDescNum                 0x00000c55   Thumb Code    26  enet_17xx_40xx.o(i.Chip_ENET_GetFillDescNum)
    Chip_ENET_IncRXConsumeIndex              0x00000c6f   Thumb Code    24  enet_17xx_40xx.o(i.Chip_ENET_IncRXConsumeIndex)
    Chip_ENET_IncTXProduceIndex              0x00000c87   Thumb Code    24  enet_17xx_40xx.o(i.Chip_ENET_IncTXProduceIndex)
    Chip_ENET_Init                           0x00000c9f   Thumb Code   114  enet_17xx_40xx.o(i.Chip_ENET_Init)
    Chip_ENET_InitRxDescriptors              0x00000d11   Thumb Code    22  enet_17xx_40xx.o(i.Chip_ENET_InitRxDescriptors)
    Chip_ENET_InitTxDescriptors              0x00000d27   Thumb Code    22  enet_17xx_40xx.o(i.Chip_ENET_InitTxDescriptors)
    Chip_ENET_ReadMIIData                    0x00000d51   Thumb Code    10  enet_17xx_40xx.o(i.Chip_ENET_ReadMIIData)
    Chip_ENET_SetFullDuplex                  0x00000d5b   Thumb Code    26  enet_17xx_40xx.o(i.Chip_ENET_SetFullDuplex)
    Chip_ENET_SetHalfDuplex                  0x00000d75   Thumb Code    26  enet_17xx_40xx.o(i.Chip_ENET_SetHalfDuplex)
    Chip_ENET_SetupMII                       0x00000d91   Thumb Code    32  enet_17xx_40xx.o(i.Chip_ENET_SetupMII)
    Chip_ENET_StartMIIRead                   0x00000db5   Thumb Code    18  enet_17xx_40xx.o(i.Chip_ENET_StartMIIRead)
    Chip_ENET_StartMIIWrite                  0x00000dcd   Thumb Code    20  enet_17xx_40xx.o(i.Chip_ENET_StartMIIWrite)
    Chip_IOCON_PinMux                        0x00000e27   Thumb Code    50  iocon_17xx_40xx.o(i.Chip_IOCON_PinMux)
    Chip_IOCON_PinMuxSet                     0x00000e59   Thumb Code    16  iocon_17xx_40xx.o(i.Chip_IOCON_PinMuxSet)
    Chip_IOCON_SetPinMuxing                  0x00000e69   Thumb Code    40  iocon_17xx_40xx.o(i.Chip_IOCON_SetPinMuxing)
    Chip_SetupXtalClocking                   0x00000e91   Thumb Code   136  sysinit_17xx_40xx.o(i.Chip_SetupXtalClocking)
    Chip_UART_Init                           0x00000f7d   Thumb Code    52  uart_17xx_40xx.o(i.Chip_UART_Init)
    Chip_UART_SetBaud                        0x00000fb5   Thumb Code    58  uart_17xx_40xx.o(i.Chip_UART_SetBaud)
    Chip_UART_TXEnable                       0x00000fef   Thumb Code     6  uart_17xx_40xx.o(i.Chip_UART_TXEnable)
    ETH_IRQHandler                           0x00000ff5   Thumb Code    80  lpc17xx_40xx_emac.o(i.ETH_IRQHandler)
    SysTick_Handler                          0x0000104d   Thumb Code    30  port.o(i.SysTick_Handler)
    SystemCoreClockUpdate                    0x00001071   Thumb Code    12  chip_17xx_40xx.o(i.SystemCoreClockUpdate)
    SystemInit                               0x00001081   Thumb Code    10  sysinit.o(i.SystemInit)
    _sys_exit                                0x00001095   Thumb Code     4  board.o(i._sys_exit)
    assert_loop                              0x00001149   Thumb Code     2  lpc_debug.o(i.assert_loop)
    dhcp_arp_reply                           0x0000114b   Thumb Code    32  dhcp.o(i.dhcp_arp_reply)
    dhcp_coarse_tmr                          0x00001261   Thumb Code    90  dhcp.o(i.dhcp_coarse_tmr)
    dhcp_fine_tmr                            0x0000156d   Thumb Code    46  dhcp.o(i.dhcp_fine_tmr)
    dhcp_network_changed                     0x000015fd   Thumb Code    70  dhcp.o(i.dhcp_network_changed)
    dhcp_release                             0x00001c0d   Thumb Code   158  dhcp.o(i.dhcp_release)
    dhcp_renew                               0x00001cb1   Thumb Code   138  dhcp.o(i.dhcp_renew)
    dhcp_start                               0x00001e3d   Thumb Code   172  dhcp.o(i.dhcp_start)
    dhcp_stop                                0x00001ef1   Thumb Code    62  dhcp.o(i.dhcp_stop)
    do_bind                                  0x00001ff1   Thumb Code    78  api_msg.o(i.do_bind)
    do_close                                 0x0000203f   Thumb Code   112  api_msg.o(i.do_close)
    do_delconn                               0x000021d5   Thumb Code   166  api_msg.o(i.do_delconn)
    do_listen                                0x0000227d   Thumb Code   154  api_msg.o(i.do_listen)
    do_newconn                               0x0000231d   Thumb Code    32  api_msg.o(i.do_newconn)
    do_recv                                  0x0000233d   Thumb Code    66  api_msg.o(i.do_recv)
    do_write                                 0x0000237f   Thumb Code    98  api_msg.o(i.do_write)
    etharp_cleanup_netif                     0x000026b1   Thumb Code    42  etharp.o(i.etharp_cleanup_netif)
    etharp_output                            0x00002831   Thumb Code   262  etharp.o(i.etharp_output)
    etharp_query                             0x00002991   Thumb Code   258  etharp.o(i.etharp_query)
    etharp_request                           0x00002b5d   Thumb Code    32  etharp.o(i.etharp_request)
    etharp_tmr                               0x00002bbd   Thumb Code    68  etharp.o(i.etharp_tmr)
    ethernet_input                           0x00002c8d   Thumb Code   144  etharp.o(i.ethernet_input)
    ferror                                   0x00002d21   Thumb Code     6  board.o(i.ferror)
    fputc                                    0x00002d27   Thumb Code    12  board.o(i.fputc)
    icmp_dest_unreach                        0x00002d33   Thumb Code     8  icmp.o(i.icmp_dest_unreach)
    icmp_input                               0x00002d3d   Thumb Code   272  icmp.o(i.icmp_input)
    icmp_time_exceeded                       0x00002ec3   Thumb Code     8  icmp.o(i.icmp_time_exceeded)
    inet_chksum                              0x00002ecb   Thumb Code    12  inet_chksum.o(i.inet_chksum)
    inet_chksum_pbuf                         0x00002ed7   Thumb Code    72  inet_chksum.o(i.inet_chksum_pbuf)
    inet_chksum_pseudo                       0x00002f1f   Thumb Code   134  inet_chksum.o(i.inet_chksum_pseudo)
    inet_chksum_pseudo_partial               0x00002fa5   Thumb Code   164  inet_chksum.o(i.inet_chksum_pseudo_partial)
    ip4_addr_isbroadcast                     0x00003049   Thumb Code    46  ip_addr.o(i.ip4_addr_isbroadcast)
    ip_frag                                  0x00003079   Thumb Code   364  ip_frag.o(i.ip_frag)
    ip_input                                 0x00003201   Thumb Code   372  ip.o(i.ip_input)
    ip_output                                0x0000337d   Thumb Code    62  ip.o(i.ip_output)
    ip_output_if                             0x000033bd   Thumb Code   230  ip.o(i.ip_output_if)
    ip_reass                                 0x000034a9   Thumb Code   394  ip_frag.o(i.ip_reass)
    ip_reass_tmr                             0x000038b9   Thumb Code    40  ip_frag.o(i.ip_reass_tmr)
    ip_route                                 0x000038e5   Thumb Code    54  ip.o(i.ip_route)
    ipaddr_ntoa_r                            0x00003925   Thumb Code   120  ip_addr.o(i.ipaddr_ntoa_r)
    lpcPHYStsPoll                            0x00003a6d   Thumb Code   106  lpc_phy_smsc87x0.o(i.lpcPHYStsPoll)
    lpc_enetif_init                          0x00003add   Thumb Code   192  lpc17xx_40xx_emac.o(i.lpc_enetif_init)
    lpc_enetif_input                         0x00003bd9   Thumb Code    58  lpc17xx_40xx_emac.o(i.lpc_enetif_input)
    lpc_phy_init                             0x00003e2d   Thumb Code   134  lpc_phy_smsc87x0.o(i.lpc_phy_init)
    lpc_rx_queue                             0x00003eb9   Thumb Code    64  lpc17xx_40xx_emac.o(i.lpc_rx_queue)
    lpc_tx_ready                             0x00003f65   Thumb Code    30  lpc17xx_40xx_emac.o(i.lpc_tx_ready)
    lpc_tx_reclaim                           0x00003f85   Thumb Code   108  lpc17xx_40xx_emac.o(i.lpc_tx_reclaim)
    lwip_chksum_copy                         0x00004029   Thumb Code    22  inet_chksum.o(i.lwip_chksum_copy)
    lwip_htonl                               0x0000403f   Thumb Code     4  def.o(i.lwip_htonl)
    lwip_htons                               0x00004043   Thumb Code     4  def.o(i.lwip_htons)
    lwip_init                                0x00004047   Thumb Code    26  init.o(i.lwip_init)
    lwip_ntohl                               0x00004061   Thumb Code     4  def.o(i.lwip_ntohl)
    lwip_ntohs                               0x00004065   Thumb Code     4  def.o(i.lwip_ntohs)
    main                                     0x000040a9   Thumb Code    52  lwip_tcpecho_freertos.o(i.main)
    msDelay                                  0x000040ed   Thumb Code    14  lwip_tcpecho_freertos.o(i.msDelay)
    netbuf_data                              0x000040fb   Thumb Code    44  netbuf.o(i.netbuf_data)
    netbuf_delete                            0x00004127   Thumb Code    32  netbuf.o(i.netbuf_delete)
    netbuf_next                              0x00004147   Thumb Code    36  netbuf.o(i.netbuf_next)
    netconn_accept                           0x0000416b   Thumb Code   100  api_lib.o(i.netconn_accept)
    netconn_alloc                            0x000041d1   Thumb Code   108  api_msg.o(i.netconn_alloc)
    netconn_bind                             0x00004241   Thumb Code    64  api_lib.o(i.netconn_bind)
    netconn_close                            0x00004285   Thumb Code     6  api_lib.o(i.netconn_close)
    netconn_delete                           0x000042d1   Thumb Code    32  api_lib.o(i.netconn_delete)
    netconn_free                             0x00004383   Thumb Code    50  api_msg.o(i.netconn_free)
    netconn_listen_with_backlog              0x000043b5   Thumb Code    58  api_lib.o(i.netconn_listen_with_backlog)
    netconn_new_with_proto_and_callback      0x000043f5   Thumb Code    98  api_lib.o(i.netconn_new_with_proto_and_callback)
    netconn_recv                             0x0000445d   Thumb Code   144  api_lib.o(i.netconn_recv)
    netconn_write_partly                     0x000045b5   Thumb Code   140  api_lib.o(i.netconn_write_partly)
    netif_add                                0x00004645   Thumb Code    88  netif.o(i.netif_add)
    netif_init                               0x000046a1   Thumb Code     2  netif.o(i.netif_init)
    netif_set_addr                           0x000046a3   Thumb Code    32  netif.o(i.netif_set_addr)
    netif_set_default                        0x000046c5   Thumb Code     6  netif.o(i.netif_set_default)
    netif_set_down                           0x000046d1   Thumb Code    26  netif.o(i.netif_set_down)
    netif_set_gw                             0x000046eb   Thumb Code     8  netif.o(i.netif_set_gw)
    netif_set_ipaddr                         0x000046f5   Thumb Code    96  netif.o(i.netif_set_ipaddr)
    netif_set_link_down                      0x0000475d   Thumb Code    18  netif.o(i.netif_set_link_down)
    netif_set_link_up                        0x0000476f   Thumb Code    56  netif.o(i.netif_set_link_up)
    netif_set_netmask                        0x000047a7   Thumb Code     8  netif.o(i.netif_set_netmask)
    netif_set_up                             0x000047af   Thumb Code    32  netif.o(i.netif_set_up)
    pbuf_alloc                               0x000047d1   Thumb Code   390  pbuf.o(i.pbuf_alloc)
    pbuf_alloced_custom                      0x0000495d   Thumb Code    88  pbuf.o(i.pbuf_alloced_custom)
    pbuf_cat                                 0x000049b5   Thumb Code    64  pbuf.o(i.pbuf_cat)
    pbuf_chain                               0x000049f5   Thumb Code    18  pbuf.o(i.pbuf_chain)
    pbuf_clen                                0x00004a07   Thumb Code    18  pbuf.o(i.pbuf_clen)
    pbuf_copy                                0x00004a19   Thumb Code   182  pbuf.o(i.pbuf_copy)
    pbuf_copy_partial                        0x00004acf   Thumb Code   106  pbuf.o(i.pbuf_copy_partial)
    pbuf_free                                0x00004b39   Thumb Code   116  pbuf.o(i.pbuf_free)
    pbuf_header                              0x00004be1   Thumb Code   110  pbuf.o(i.pbuf_header)
    pbuf_realloc                             0x00004c91   Thumb Code   116  pbuf.o(i.pbuf_realloc)
    pbuf_ref                                 0x00004d05   Thumb Code    26  pbuf.o(i.pbuf_ref)
    pvPortMalloc                             0x00004f87   Thumb Code    30  heap_3.o(i.pvPortMalloc)
    pxPortInitialiseStack                    0x00004fa5   Thumb Code    28  port.o(i.pxPortInitialiseStack)
    sys_arch_mbox_fetch                      0x000051cd   Thumb Code    92  sys_arch_freertos.o(i.sys_arch_mbox_fetch)
    sys_arch_mbox_tryfetch                   0x00005229   Thumb Code    30  sys_arch_freertos.o(i.sys_arch_mbox_tryfetch)
    sys_arch_protect                         0x00005247   Thumb Code    10  sys_arch_freertos.o(i.sys_arch_protect)
    sys_arch_sem_wait                        0x00005251   Thumb Code    78  sys_arch_freertos.o(i.sys_arch_sem_wait)
    sys_arch_unprotect                       0x0000529f   Thumb Code     4  sys_arch_freertos.o(i.sys_arch_unprotect)
    sys_init                                 0x000052a3   Thumb Code     2  sys_arch_freertos.o(i.sys_init)
    sys_mbox_free                            0x000052a5   Thumb Code    20  sys_arch_freertos.o(i.sys_mbox_free)
    sys_mbox_new                             0x000052b9   Thumb Code    30  sys_arch_freertos.o(i.sys_mbox_new)
    sys_mbox_post                            0x000052d7   Thumb Code    26  sys_arch_freertos.o(i.sys_mbox_post)
    sys_mbox_trypost                         0x000052f1   Thumb Code    28  sys_arch_freertos.o(i.sys_mbox_trypost)
    sys_mutex_lock                           0x0000530d   Thumb Code    26  sys_arch_freertos.o(i.sys_mutex_lock)
    sys_mutex_new                            0x00005327   Thumb Code    24  sys_arch_freertos.o(i.sys_mutex_new)
    sys_mutex_unlock                         0x0000533f   Thumb Code    12  sys_arch_freertos.o(i.sys_mutex_unlock)
    sys_sem_free                             0x0000534b   Thumb Code     6  sys_arch_freertos.o(i.sys_sem_free)
    sys_sem_new                              0x00005351   Thumb Code    56  sys_arch_freertos.o(i.sys_sem_new)
    sys_sem_signal                           0x00005389   Thumb Code    12  sys_arch_freertos.o(i.sys_sem_signal)
    sys_thread_new                           0x00005395   Thumb Code    48  sys_arch_freertos.o(i.sys_thread_new)
    sys_timeout                              0x000053c5   Thumb Code    96  timers.o(i.sys_timeout)
    sys_timeouts_init                        0x0000542d   Thumb Code    54  timers.o(i.sys_timeouts_init)
    sys_timeouts_mbox_fetch                  0x00005475   Thumb Code    90  timers.o(i.sys_timeouts_mbox_fetch)
    sys_untimeout                            0x000054d5   Thumb Code    66  timers.o(i.sys_untimeout)
    tcp_abandon                              0x0000551d   Thumb Code   152  tcp.o(i.tcp_abandon)
    tcp_abort                                0x000055b9   Thumb Code     6  tcp.o(i.tcp_abort)
    tcp_accept                               0x000055bf   Thumb Code     4  tcp.o(i.tcp_accept)
    tcp_alloc                                0x000055c9   Thumb Code   238  tcp.o(i.tcp_alloc)
    tcp_arg                                  0x000056c9   Thumb Code     4  tcp.o(i.tcp_arg)
    tcp_bind                                 0x000056cd   Thumb Code   126  tcp.o(i.tcp_bind)
    tcp_close                                0x00005755   Thumb Code    20  tcp.o(i.tcp_close)
    tcp_eff_send_mss                         0x00005945   Thumb Code    32  tcp.o(i.tcp_eff_send_mss)
    tcp_enqueue_flags                        0x00005965   Thumb Code   234  tcp_out.o(i.tcp_enqueue_flags)
    tcp_err                                  0x00005a4f   Thumb Code    22  tcp.o(i.tcp_err)
    tcp_fasttmr                              0x00005a65   Thumb Code    90  tcp.o(i.tcp_fasttmr)
    tcp_init                                 0x00005ac5   Thumb Code     2  tcp.o(i.tcp_init)
    tcp_input                                0x00005ac9   Thumb Code   866  tcp_in.o(i.tcp_input)
    tcp_keepalive                            0x00005e49   Thumb Code    80  tcp_out.o(i.tcp_keepalive)
    tcp_listen_with_backlog                  0x00005f7d   Thumb Code   130  tcp.o(i.tcp_listen_with_backlog)
    tcp_new                                  0x0000600d   Thumb Code     6  tcp.o(i.tcp_new)
    tcp_next_iss                             0x00006071   Thumb Code    12  tcp.o(i.tcp_next_iss)
    tcp_output                               0x000060f9   Thumb Code   412  tcp_out.o(i.tcp_output)
    tcp_pcb_purge                            0x000064f5   Thumb Code    66  tcp.o(i.tcp_pcb_purge)
    tcp_pcb_remove                           0x00006539   Thumb Code   112  tcp.o(i.tcp_pcb_remove)
    tcp_poll                                 0x000065ad   Thumb Code    28  tcp.o(i.tcp_poll)
    tcp_process_refused_data                 0x0000691d   Thumb Code   106  tcp.o(i.tcp_process_refused_data)
    tcp_recv                                 0x00007155   Thumb Code    22  tcp.o(i.tcp_recv)
    tcp_recv_null                            0x0000716b   Thumb Code    36  tcp.o(i.tcp_recv_null)
    tcp_recved                               0x0000718f   Thumb Code    84  tcp.o(i.tcp_recved)
    tcp_rexmit                               0x000071e3   Thumb Code    82  tcp_out.o(i.tcp_rexmit)
    tcp_rexmit_fast                          0x00007235   Thumb Code    88  tcp_out.o(i.tcp_rexmit_fast)
    tcp_rexmit_rto                           0x0000728d   Thumb Code    46  tcp_out.o(i.tcp_rexmit_rto)
    tcp_rst                                  0x000072bb   Thumb Code   146  tcp_out.o(i.tcp_rst)
    tcp_seg_copy                             0x0000736d   Thumb Code    38  tcp.o(i.tcp_seg_copy)
    tcp_seg_free                             0x00007399   Thumb Code    26  tcp.o(i.tcp_seg_free)
    tcp_segs_free                            0x000073b3   Thumb Code    18  tcp.o(i.tcp_segs_free)
    tcp_send_empty_ack                       0x000073c5   Thumb Code    92  tcp_out.o(i.tcp_send_empty_ack)
    tcp_send_fin                             0x00007421   Thumb Code    68  tcp_out.o(i.tcp_send_fin)
    tcp_sent                                 0x00007465   Thumb Code    20  tcp.o(i.tcp_sent)
    tcp_shutdown                             0x00007479   Thumb Code    78  tcp.o(i.tcp_shutdown)
    tcp_slowtmr                              0x000074c9   Thumb Code   694  tcp.o(i.tcp_slowtmr)
    tcp_timer_needed                         0x00007791   Thumb Code    36  timers.o(i.tcp_timer_needed)
    tcp_tmr                                  0x00007831   Thumb Code    28  tcp.o(i.tcp_tmr)
    tcp_update_rcv_ann_wnd                   0x00007851   Thumb Code    66  tcp.o(i.tcp_update_rcv_ann_wnd)
    tcp_write                                0x00007893   Thumb Code  1018  tcp_out.o(i.tcp_write)
    tcp_zero_window_probe                    0x00007ce5   Thumb Code   160  tcp_out.o(i.tcp_zero_window_probe)
    tcpecho_init                             0x00007d85   Thumb Code    20  tcpecho.o(i.tcpecho_init)
    tcpip_apimsg                             0x00007e21   Thumb Code    54  tcpip.o(i.tcpip_apimsg)
    tcpip_callback_with_block                0x00007e5d   Thumb Code    90  tcpip.o(i.tcpip_callback_with_block)
    tcpip_init                               0x00007ec1   Thumb Code    50  tcpip.o(i.tcpip_init)
    tcpip_input                              0x00007f15   Thumb Code    70  tcpip.o(i.tcpip_input)
    udp_bind                                 0x0000801d   Thumb Code   172  udp.o(i.udp_bind)
    udp_connect                              0x000080cd   Thumb Code    70  udp.o(i.udp_connect)
    udp_init                                 0x00008119   Thumb Code     2  udp.o(i.udp_init)
    udp_input                                0x0000811d   Thumb Code   414  udp.o(i.udp_input)
    udp_new                                  0x000082c9   Thumb Code    28  udp.o(i.udp_new)
    udp_recv                                 0x000082e9   Thumb Code     6  udp.o(i.udp_recv)
    udp_remove                               0x000082f1   Thumb Code    36  udp.o(i.udp_remove)
    udp_sendto_if                            0x00008319   Thumb Code    18  udp.o(i.udp_sendto_if)
    udp_sendto_if_chksum                     0x0000832b   Thumb Code   288  udp.o(i.udp_sendto_if_chksum)
    uxListRemove                             0x0000844b   Thumb Code    36  list.o(i.uxListRemove)
    uxQueueMessagesWaiting                   0x0000846f   Thumb Code    18  queue.o(i.uxQueueMessagesWaiting)
    vApplicationIdleHook                     0x00008481   Thumb Code     4  freertoscommonhooks.o(i.vApplicationIdleHook)
    vApplicationMallocFailedHook             0x00008485   Thumb Code    12  freertoscommonhooks.o(i.vApplicationMallocFailedHook)
    vApplicationStackOverflowHook            0x000084b9   Thumb Code    12  freertoscommonhooks.o(i.vApplicationStackOverflowHook)
    vListInitialise                          0x000084f5   Thumb Code    22  list.o(i.vListInitialise)
    vListInitialiseItem                      0x0000850b   Thumb Code     6  list.o(i.vListInitialiseItem)
    vListInsert                              0x00008511   Thumb Code    48  list.o(i.vListInsert)
    vListInsertEnd                           0x00008541   Thumb Code    24  list.o(i.vListInsertEnd)
    vPortEnterCritical                       0x00008581   Thumb Code    24  port.o(i.vPortEnterCritical)
    vPortExitCritical                        0x0000859d   Thumb Code    16  port.o(i.vPortExitCritical)
    vPortFree                                0x000085b1   Thumb Code    26  heap_3.o(i.vPortFree)
    vPortSetupTimerInterrupt                 0x000085cd   Thumb Code    26  port.o(i.vPortSetupTimerInterrupt)
    vPortYield                               0x000085ed   Thumb Code    18  port.o(i.vPortYield)
    vQueueDelete                             0x00008605   Thumb Code    24  queue.o(i.vQueueDelete)
    vQueueUnregisterQueue                    0x0000861d   Thumb Code    30  queue.o(i.vQueueUnregisterQueue)
    vTaskDelay                               0x000087e5   Thumb Code    48  tasks.o(i.vTaskDelay)
    vTaskMissedYield                         0x00008819   Thumb Code     8  tasks.o(i.vTaskMissedYield)
    vTaskPlaceOnEventList                    0x00008825   Thumb Code    52  tasks.o(i.vTaskPlaceOnEventList)
    vTaskPriorityDisinherit                  0x00008861   Thumb Code    64  tasks.o(i.vTaskPriorityDisinherit)
    vTaskPriorityInherit                     0x000088a9   Thumb Code    92  tasks.o(i.vTaskPriorityInherit)
    vTaskSetTimeOutState                     0x0000890d   Thumb Code    12  tasks.o(i.vTaskSetTimeOutState)
    vTaskStartScheduler                      0x0000891d   Thumb Code    50  tasks.o(i.vTaskStartScheduler)
    vTaskSuspendAll                          0x00008961   Thumb Code    10  tasks.o(i.vTaskSuspendAll)
    vTaskSwitchContext                       0x00008971   Thumb Code    96  tasks.o(i.vTaskSwitchContext)
    xPortStartScheduler                      0x00008a45   Thumb Code    38  port.o(i.xPortStartScheduler)
    xQueueCreateCountingSemaphore            0x00008a75   Thumb Code    20  queue.o(i.xQueueCreateCountingSemaphore)
    xQueueCreateMutex                        0x00008a89   Thumb Code    74  queue.o(i.xQueueCreateMutex)
    xQueueGenericCreate                      0x00008ad3   Thumb Code    72  queue.o(i.xQueueGenericCreate)
    xQueueGenericReceive                     0x00008b1b   Thumb Code   258  queue.o(i.xQueueGenericReceive)
    xQueueGenericReset                       0x00008c1d   Thumb Code    96  queue.o(i.xQueueGenericReset)
    xQueueGenericSend                        0x00008c7d   Thumb Code   214  queue.o(i.xQueueGenericSend)
    xQueueGenericSendFromISR                 0x00008d53   Thumb Code    98  queue.o(i.xQueueGenericSendFromISR)
    xTaskCheckForTimeOut                     0x00008db5   Thumb Code    66  tasks.o(i.xTaskCheckForTimeOut)
    xTaskGenericCreate                       0x00008dfd   Thumb Code   352  tasks.o(i.xTaskGenericCreate)
    xTaskGetCurrentTaskHandle                0x00008f65   Thumb Code     6  tasks.o(i.xTaskGetCurrentTaskHandle)
    xTaskGetTickCount                        0x00008f71   Thumb Code    18  tasks.o(i.xTaskGetTickCount)
    xTaskIncrementTick                       0x00008f89   Thumb Code   188  tasks.o(i.xTaskIncrementTick)
    xTaskRemoveFromEventList                 0x0000904d   Thumb Code    82  tasks.o(i.xTaskRemoveFromEventList)
    xTaskResumeAll                           0x000090a9   Thumb Code   148  tasks.o(i.xTaskResumeAll)
    tcp_persist_backoff                      0x00009144   Data           7  tcp.o(.constdata)
    tcp_state_str                            0x0000914c   Data          44  tcp.o(.constdata)
    tcp_backoff                              0x00009178   Data          13  tcp.o(.constdata)
    tcp_pcb_lists                            0x00009188   Data          16  tcp.o(.constdata)
    memp_sizes                               0x00009198   Data          26  memp.o(.constdata)
    ip_addr_any                              0x000091b4   Data           4  ip_addr.o(.constdata)
    ip_addr_broadcast                        0x000091b8   Data           4  ip_addr.o(.constdata)
    ethbroadcast                             0x000091bc   Data           6  etharp.o(.constdata)
    ethzero                                  0x000091c2   Data           6  etharp.o(.constdata)
    OscRateIn                                0x000091c8   Data           4  board.o(.constdata)
    RTCOscRateIn                             0x000091cc   Data           4  board.o(.constdata)
    Region$$Table$$Base                      0x000092b4   Number         0  anon$$obj.o(Region$$Table)
    Region$$Table$$Limit                     0x000092e4   Number         0  anon$$obj.o(Region$$Table)
    pxCurrentTCB                             0x2007c008   Data           4  tasks.o(.data)
    udp_pcbs                                 0x2007c044   Data           4  udp.o(.data)
    tcp_input_pcb                            0x2007c068   Data           4  tcp_in.o(.data)
    tcp_active_pcbs_changed                  0x2007c06c   Data           1  tcp.o(.data)
    tcp_ticks                                0x2007c078   Data           4  tcp.o(.data)
    tcp_bound_pcbs                           0x2007c07c   Data           4  tcp.o(.data)
    tcp_listen_pcbs                          0x2007c080   Data           4  tcp.o(.data)
    tcp_active_pcbs                          0x2007c084   Data           4  tcp.o(.data)
    tcp_tw_pcbs                              0x2007c088   Data           4  tcp.o(.data)
    tcp_tmp_pcb                              0x2007c08c   Data           4  tcp.o(.data)
    pbuf_free_ooseq_pending                  0x2007c090   Data           1  pbuf.o(.data)
    netif_list                               0x2007c098   Data           4  netif.o(.data)
    netif_default                            0x2007c09c   Data           4  netif.o(.data)
    current_netif                            0x2007c0b0   Data           4  ip.o(.data)
    current_header                           0x2007c0b4   Data           4  ip.o(.data)
    current_iphdr_src                        0x2007c0b8   Data           4  ip.o(.data)
    current_iphdr_dest                       0x2007c0bc   Data           4  ip.o(.data)
    __stdout                                 0x2007c0e4   Data           4  board.o(.data)
    SystemCoreClock                          0x2007c0ec   Data           4  chip_17xx_40xx.o(.data)
    xQueueRegistry                           0x2007c138   Data          80  queue.o(.bss)
    dhcp_rx_options_val                      0x2007c264   Data          40  dhcp.o(.bss)
    dhcp_rx_options_given                    0x2007c28c   Data          10  dhcp.o(.bss)
    lpc_enetdata                             0x2007c360   Data         180  lpc17xx_40xx_emac.o(.bss)
    __libspace_start                         0x2007c414   Data          96  libspace.o(.bss)
    __temporary_stack_top$libspace           0x2007c474   Data           0  libspace.o(.bss)



==============================================================================

Memory Map of the image

  Image Entry point : 0x000000cd

  Load Region LR_IROM1 (Base: 0x00000000, Size: 0x000093d4, Max: 0x00080000, ABSOLUTE)

    Execution Region ER_IROM1 (Exec base: 0x00000000, Load base: 0x00000000, Size: 0x000092e4, Max: 0x00080000, ABSOLUTE)

    Exec Addr    Load Addr    Size         Type   Attr      Idx    E Section Name        Object

    0x00000000   0x00000000   0x000000cc   Data   RO          416    RESET               keil_startup_lpc17xx_40xx.o
    0x000000cc   0x000000cc   0x00000008   Code   RO         4793  * !!!main             c_w.l(__main.o)
    0x000000d4   0x000000d4   0x00000034   Code   RO         5015    !!!scatter          c_w.l(__scatter.o)
    0x00000108   0x00000108   0x0000001a   Code   RO         5017    !!handler_copy      c_w.l(__scatter_copy.o)
    0x00000122   0x00000122   0x00000002   PAD
    0x00000124   0x00000124   0x0000001c   Code   RO         5019    !!handler_zi        c_w.l(__scatter_zi.o)
    0x00000140   0x00000140   0x00000000   Code   RO         4778    .ARM.Collect$$_printf_percent$$00000000  c_w.l(_printf_percent.o)
    0x00000140   0x00000140   0x00000006   Code   RO         4777    .ARM.Collect$$_printf_percent$$00000009  c_w.l(_printf_d.o)
    0x00000146   0x00000146   0x00000006   Code   RO         4776    .ARM.Collect$$_printf_percent$$00000014  c_w.l(_printf_s.o)
    0x0000014c   0x0000014c   0x00000004   Code   RO         4833    .ARM.Collect$$_printf_percent$$00000017  c_w.l(_printf_percent_end.o)
    0x00000150   0x00000150   0x00000002   Code   RO         4956    .ARM.Collect$$libinit$$00000000  c_w.l(libinit.o)
    0x00000152   0x00000152   0x00000000   Code   RO         4839    .ARM.Collect$$libinit$$00000002  c_w.l(libinit2.o)
    0x00000152   0x00000152   0x00000000   Code   RO         4841    .ARM.Collect$$libinit$$00000004  c_w.l(libinit2.o)
    0x00000152   0x00000152   0x00000008   Code   RO         4842    .ARM.Collect$$libinit$$00000005  c_w.l(libinit2.o)
    0x0000015a   0x0000015a   0x00000000   Code   RO         4844    .ARM.Collect$$libinit$$0000000A  c_w.l(libinit2.o)
    0x0000015a   0x0000015a   0x00000000   Code   RO         4846    .ARM.Collect$$libinit$$0000000C  c_w.l(libinit2.o)
    0x0000015a   0x0000015a   0x00000000   Code   RO         4848    .ARM.Collect$$libinit$$0000000E  c_w.l(libinit2.o)
    0x0000015a   0x0000015a   0x00000000   Code   RO         4851    .ARM.Collect$$libinit$$00000011  c_w.l(libinit2.o)
    0x0000015a   0x0000015a   0x00000000   Code   RO         4853    .ARM.Collect$$libinit$$00000013  c_w.l(libinit2.o)
    0x0000015a   0x0000015a   0x00000000   Code   RO         4855    .ARM.Collect$$libinit$$00000015  c_w.l(libinit2.o)
    0x0000015a   0x0000015a   0x00000000   Code   RO         4857    .ARM.Collect$$libinit$$00000017  c_w.l(libinit2.o)
    0x0000015a   0x0000015a   0x00000000   Code   RO         4859    .ARM.Collect$$libinit$$00000019  c_w.l(libinit2.o)
    0x0000015a   0x0000015a   0x00000000   Code   RO         4861    .ARM.Collect$$libinit$$0000001B  c_w.l(libinit2.o)
    0x0000015a   0x0000015a   0x00000000   Code   RO         4863    .ARM.Collect$$libinit$$0000001D  c_w.l(libinit2.o)
    0x0000015a   0x0000015a   0x00000000   Code   RO         4865    .ARM.Collect$$libinit$$0000001F  c_w.l(libinit2.o)
    0x0000015a   0x0000015a   0x00000000   Code   RO         4867    .ARM.Collect$$libinit$$00000021  c_w.l(libinit2.o)
    0x0000015a   0x0000015a   0x00000000   Code   RO         4869    .ARM.Collect$$libinit$$00000023  c_w.l(libinit2.o)
    0x0000015a   0x0000015a   0x00000000   Code   RO         4871    .ARM.Collect$$libinit$$00000025  c_w.l(libinit2.o)
    0x0000015a   0x0000015a   0x00000000   Code   RO         4875    .ARM.Collect$$libinit$$0000002C  c_w.l(libinit2.o)
    0x0000015a   0x0000015a   0x00000000   Code   RO         4877    .ARM.Collect$$libinit$$0000002E  c_w.l(libinit2.o)
    0x0000015a   0x0000015a   0x00000000   Code   RO         4879    .ARM.Collect$$libinit$$00000030  c_w.l(libinit2.o)
    0x0000015a   0x0000015a   0x00000000   Code   RO         4881    .ARM.Collect$$libinit$$00000032  c_w.l(libinit2.o)
    0x0000015a   0x0000015a   0x00000002   Code   RO         4882    .ARM.Collect$$libinit$$00000033  c_w.l(libinit2.o)
    0x0000015c   0x0000015c   0x00000002   Code   RO         5012    .ARM.Collect$$libshutdown$$00000000  c_w.l(libshutdown.o)
    0x0000015e   0x0000015e   0x00000000   Code   RO         4970    .ARM.Collect$$libshutdown$$00000002  c_w.l(libshutdown2.o)
    0x0000015e   0x0000015e   0x00000000   Code   RO         4972    .ARM.Collect$$libshutdown$$00000004  c_w.l(libshutdown2.o)
    0x0000015e   0x0000015e   0x00000000   Code   RO         4975    .ARM.Collect$$libshutdown$$00000007  c_w.l(libshutdown2.o)
    0x0000015e   0x0000015e   0x00000000   Code   RO         4978    .ARM.Collect$$libshutdown$$0000000A  c_w.l(libshutdown2.o)
    0x0000015e   0x0000015e   0x00000000   Code   RO         4980    .ARM.Collect$$libshutdown$$0000000C  c_w.l(libshutdown2.o)
    0x0000015e   0x0000015e   0x00000000   Code   RO         4983    .ARM.Collect$$libshutdown$$0000000F  c_w.l(libshutdown2.o)
    0x0000015e   0x0000015e   0x00000002   Code   RO         4984    .ARM.Collect$$libshutdown$$00000010  c_w.l(libshutdown2.o)
    0x00000160   0x00000160   0x00000000   Code   RO         4797    .ARM.Collect$$rtentry$$00000000  c_w.l(__rtentry.o)
    0x00000160   0x00000160   0x00000000   Code   RO         4889    .ARM.Collect$$rtentry$$00000002  c_w.l(__rtentry2.o)
    0x00000160   0x00000160   0x00000006   Code   RO         4901    .ARM.Collect$$rtentry$$00000004  c_w.l(__rtentry4.o)
    0x00000166   0x00000166   0x00000000   Code   RO         4891    .ARM.Collect$$rtentry$$00000009  c_w.l(__rtentry2.o)
    0x00000166   0x00000166   0x00000004   Code   RO         4892    .ARM.Collect$$rtentry$$0000000A  c_w.l(__rtentry2.o)
    0x0000016a   0x0000016a   0x00000000   Code   RO         4894    .ARM.Collect$$rtentry$$0000000C  c_w.l(__rtentry2.o)
    0x0000016a   0x0000016a   0x00000008   Code   RO         4895    .ARM.Collect$$rtentry$$0000000D  c_w.l(__rtentry2.o)
    0x00000172   0x00000172   0x00000002   Code   RO         4957    .ARM.Collect$$rtexit$$00000000  c_w.l(rtexit.o)
    0x00000174   0x00000174   0x00000000   Code   RO         4988    .ARM.Collect$$rtexit$$00000002  c_w.l(rtexit2.o)
    0x00000174   0x00000174   0x00000004   Code   RO         4989    .ARM.Collect$$rtexit$$00000003  c_w.l(rtexit2.o)
    0x00000178   0x00000178   0x00000006   Code   RO         4990    .ARM.Collect$$rtexit$$00000004  c_w.l(rtexit2.o)
    0x0000017e   0x0000017e   0x00000002   PAD
    0x00000180   0x00000180   0x0000008a   Code   RO          423    .emb_text           port.o
    0x0000020a   0x0000020a   0x00000002   PAD
    0x0000020c   0x0000020c   0x00000000   Code   RO         4907    .emb_text           c_w.l(maybetermalloc1.o)
    0x0000020c   0x0000020c   0x00000044   Code   RO          417    .text               keil_startup_lpc17xx_40xx.o
    0x00000250   0x00000250   0x0000005e   Code   RO         4686    .text               c_w.l(h1_alloc.o)
    0x000002ae   0x000002ae   0x0000004e   Code   RO         4688    .text               c_w.l(h1_free.o)
    0x000002fc   0x000002fc   0x00000018   Code   RO         4748    .text               c_w.l(noretval__2printf.o)
    0x00000314   0x00000314   0x00000068   Code   RO         4750    .text               c_w.l(__printf.o)
    0x0000037c   0x0000037c   0x00000052   Code   RO         4752    .text               c_w.l(_printf_str.o)
    0x000003ce   0x000003ce   0x00000002   PAD
    0x000003d0   0x000003d0   0x00000078   Code   RO         4754    .text               c_w.l(_printf_dec.o)
    0x00000448   0x00000448   0x00000058   Code   RO         4779    .text               c_w.l(memcmp.o)
    0x000004a0   0x000004a0   0x0000003e   Code   RO         4781    .text               c_w.l(strlen.o)
    0x000004de   0x000004de   0x0000008a   Code   RO         4783    .text               c_w.l(rt_memcpy_v6.o)
    0x00000568   0x00000568   0x00000064   Code   RO         4785    .text               c_w.l(rt_memcpy_w.o)
    0x000005cc   0x000005cc   0x00000010   Code   RO         4787    .text               c_w.l(aeabi_memset.o)
    0x000005dc   0x000005dc   0x0000004e   Code   RO         4789    .text               c_w.l(rt_memclr_w.o)
    0x0000062a   0x0000062a   0x00000006   Code   RO         4791    .text               c_w.l(heapauxi.o)
    0x00000630   0x00000630   0x00000008   Code   RO         4805    .text               c_w.l(rt_heap_descriptor_intlibspace.o)
    0x00000638   0x00000638   0x00000004   Code   RO         4807    .text               c_w.l(hguard.o)
    0x0000063c   0x0000063c   0x0000008a   Code   RO         4809    .text               c_w.l(init_alloc.o)
    0x000006c6   0x000006c6   0x0000000e   Code   RO         4813    .text               c_w.l(h1_init.o)
    0x000006d4   0x000006d4   0x000000b2   Code   RO         4827    .text               c_w.l(_printf_intcommon.o)
    0x00000786   0x00000786   0x0000002c   Code   RO         4829    .text               c_w.l(_printf_char.o)
    0x000007b2   0x000007b2   0x00000002   PAD
    0x000007b4   0x000007b4   0x00000024   Code   RO         4831    .text               c_w.l(_printf_char_file.o)
    0x000007d8   0x000007d8   0x00000044   Code   RO         4834    .text               c_w.l(rt_memclr.o)
    0x0000081c   0x0000081c   0x00000008   Code   RO         4885    .text               c_w.l(libspace.o)
    0x00000824   0x00000824   0x00000034   Code   RO         4909    .text               c_w.l(h1_extend.o)
    0x00000858   0x00000858   0x00000030   Code   RO         4913    .text               c_w.l(_printf_char_common.o)
    0x00000888   0x00000888   0x0000000e   Code   RO         4915    .text               c_w.l(defsig_rtmem_outer.o)
    0x00000896   0x00000896   0x00000002   Code   RO         4926    .text               c_w.l(use_no_semi.o)
    0x00000898   0x00000898   0x00000000   Code   RO         4928    .text               c_w.l(indicate_semi.o)
    0x00000898   0x00000898   0x0000004a   Code   RO         4929    .text               c_w.l(sys_stackheap_outer.o)
    0x000008e2   0x000008e2   0x00000012   Code   RO         4937    .text               c_w.l(exit.o)
    0x000008f4   0x000008f4   0x0000000a   Code   RO         4939    .text               c_w.l(defsig_exit.o)
    0x000008fe   0x000008fe   0x00000002   PAD
    0x00000900   0x00000900   0x00000050   Code   RO         4945    .text               c_w.l(defsig_rtmem_inner.o)
    0x00000950   0x00000950   0x00000032   Code   RO         4965    .text               c_w.l(defsig_general.o)
    0x00000982   0x00000982   0x0000000e   Code   RO         4985    .text               c_w.l(sys_wrch.o)
    0x00000990   0x00000990   0x00000028   Code   RO         3680    i.Board_Debug_Init  board_nxp_lpcxpresso_1769.lib(board.o)
    0x000009b8   0x000009b8   0x00000020   Code   RO         3681    i.Board_ENET_GetMacADDR  board_nxp_lpcxpresso_1769.lib(board.o)
    0x000009d8   0x000009d8   0x00000028   Code   RO         3683    i.Board_Init        board_nxp_lpcxpresso_1769.lib(board.o)
    0x00000a00   0x00000a00   0x00000018   Code   RO         3685    i.Board_LED_Set     board_nxp_lpcxpresso_1769.lib(board.o)
    0x00000a18   0x00000a18   0x0000001c   Code   RO         3916    i.Board_SetupClocking  board_nxp_lpcxpresso_1769.lib(board_sysinit.o)
    0x00000a34   0x00000a34   0x00000014   Code   RO         3917    i.Board_SetupMuxing  board_nxp_lpcxpresso_1769.lib(board_sysinit.o)
    0x00000a48   0x00000a48   0x0000000e   Code   RO         3918    i.Board_SystemInit  board_nxp_lpcxpresso_1769.lib(board_sysinit.o)
    0x00000a56   0x00000a56   0x00000002   PAD
    0x00000a58   0x00000a58   0x00000010   Code   RO         3693    i.Board_UARTPutChar  board_nxp_lpcxpresso_1769.lib(board.o)
    0x00000a68   0x00000a68   0x00000014   Code   RO         3694    i.Board_UARTPutSTR  board_nxp_lpcxpresso_1769.lib(board.o)
    0x00000a7c   0x00000a7c   0x00000018   Code   RO         4208    i.Chip_Clock_DisablePLL  chip_175x_6x_lib.lib(clock_17xx_40xx.o)
    0x00000a94   0x00000a94   0x00000018   Code   RO         4210    i.Chip_Clock_EnablePLL  chip_175x_6x_lib.lib(clock_17xx_40xx.o)
    0x00000aac   0x00000aac   0x00000014   Code   RO         4211    i.Chip_Clock_EnablePeriphClock  chip_175x_6x_lib.lib(clock_17xx_40xx.o)
    0x00000ac0   0x00000ac0   0x00000018   Code   RO         4212    i.Chip_Clock_FeedPLL  chip_175x_6x_lib.lib(clock_17xx_40xx.o)
    0x00000ad8   0x00000ad8   0x00000010   Code   RO         4213    i.Chip_Clock_GetCPUClockDiv  chip_175x_6x_lib.lib(clock_17xx_40xx.o)
    0x00000ae8   0x00000ae8   0x00000018   Code   RO         4214    i.Chip_Clock_GetCPUClockSource  chip_175x_6x_lib.lib(clock_17xx_40xx.o)
    0x00000b00   0x00000b00   0x00000020   Code   RO         4215    i.Chip_Clock_GetMainClockRate  chip_175x_6x_lib.lib(clock_17xx_40xx.o)
    0x00000b20   0x00000b20   0x00000038   Code   RO         4216    i.Chip_Clock_GetMainPLLOutClockRate  chip_175x_6x_lib.lib(clock_17xx_40xx.o)
    0x00000b58   0x00000b58   0x00000040   Code   RO         4217    i.Chip_Clock_GetPCLKDiv  chip_175x_6x_lib.lib(clock_17xx_40xx.o)
    0x00000b98   0x00000b98   0x00000016   Code   RO         4218    i.Chip_Clock_GetPeripheralClockRate  chip_175x_6x_lib.lib(clock_17xx_40xx.o)
    0x00000bae   0x00000bae   0x00000002   PAD
    0x00000bb0   0x00000bb0   0x00000038   Code   RO         4219    i.Chip_Clock_GetSYSCLKRate  chip_175x_6x_lib.lib(clock_17xx_40xx.o)
    0x00000be8   0x00000be8   0x00000012   Code   RO         4220    i.Chip_Clock_GetSystemClockRate  chip_175x_6x_lib.lib(clock_17xx_40xx.o)
    0x00000bfa   0x00000bfa   0x00000002   PAD
    0x00000bfc   0x00000bfc   0x0000000c   Code   RO         4226    i.Chip_Clock_SetCPUClockDiv  chip_175x_6x_lib.lib(clock_17xx_40xx.o)
    0x00000c08   0x00000c08   0x00000024   Code   RO         4230    i.Chip_Clock_SetupPLL  chip_175x_6x_lib.lib(clock_17xx_40xx.o)
    0x00000c2c   0x00000c2c   0x00000028   Code   RO         3956    i.Chip_ENET_FindMIIDiv  chip_175x_6x_lib.lib(enet_17xx_40xx.o)
    0x00000c54   0x00000c54   0x0000001a   Code   RO         3958    i.Chip_ENET_GetFillDescNum  chip_175x_6x_lib.lib(enet_17xx_40xx.o)
    0x00000c6e   0x00000c6e   0x00000018   Code   RO         3959    i.Chip_ENET_IncRXConsumeIndex  chip_175x_6x_lib.lib(enet_17xx_40xx.o)
    0x00000c86   0x00000c86   0x00000018   Code   RO         3960    i.Chip_ENET_IncTXProduceIndex  chip_175x_6x_lib.lib(enet_17xx_40xx.o)
    0x00000c9e   0x00000c9e   0x00000072   Code   RO         3961    i.Chip_ENET_Init    chip_175x_6x_lib.lib(enet_17xx_40xx.o)
    0x00000d10   0x00000d10   0x00000016   Code   RO         3962    i.Chip_ENET_InitRxDescriptors  chip_175x_6x_lib.lib(enet_17xx_40xx.o)
    0x00000d26   0x00000d26   0x00000016   Code   RO         3963    i.Chip_ENET_InitTxDescriptors  chip_175x_6x_lib.lib(enet_17xx_40xx.o)
    0x00000d3c   0x00000d3c   0x00000014   Code   RO         3309    i.Chip_ENET_IsRxEmpty  lpc17xx_40xx_emac.o
    0x00000d50   0x00000d50   0x0000000a   Code   RO         3964    i.Chip_ENET_ReadMIIData  chip_175x_6x_lib.lib(enet_17xx_40xx.o)
    0x00000d5a   0x00000d5a   0x0000001a   Code   RO         3965    i.Chip_ENET_SetFullDuplex  chip_175x_6x_lib.lib(enet_17xx_40xx.o)
    0x00000d74   0x00000d74   0x0000001a   Code   RO         3966    i.Chip_ENET_SetHalfDuplex  chip_175x_6x_lib.lib(enet_17xx_40xx.o)
    0x00000d8e   0x00000d8e   0x00000002   PAD
    0x00000d90   0x00000d90   0x00000024   Code   RO         3967    i.Chip_ENET_SetupMII  chip_175x_6x_lib.lib(enet_17xx_40xx.o)
    0x00000db4   0x00000db4   0x00000018   Code   RO         3968    i.Chip_ENET_StartMIIRead  chip_175x_6x_lib.lib(enet_17xx_40xx.o)
    0x00000dcc   0x00000dcc   0x00000018   Code   RO         3969    i.Chip_ENET_StartMIIWrite  chip_175x_6x_lib.lib(enet_17xx_40xx.o)
    0x00000de4   0x00000de4   0x00000010   Code   RO         3699    i.Chip_GPIO_SetPinDIRInput  board_nxp_lpcxpresso_1769.lib(board.o)
    0x00000df4   0x00000df4   0x00000016   Code   RO         3700    i.Chip_GPIO_WriteDirBit  board_nxp_lpcxpresso_1769.lib(board.o)
    0x00000e0a   0x00000e0a   0x0000001c   Code   RO         3701    i.Chip_GPIO_WritePortBit  board_nxp_lpcxpresso_1769.lib(board.o)
    0x00000e26   0x00000e26   0x00000032   Code   RO         4424    i.Chip_IOCON_PinMux  chip_175x_6x_lib.lib(iocon_17xx_40xx.o)
    0x00000e58   0x00000e58   0x00000010   Code   RO         4425    i.Chip_IOCON_PinMuxSet  chip_175x_6x_lib.lib(iocon_17xx_40xx.o)
    0x00000e68   0x00000e68   0x00000028   Code   RO         4426    i.Chip_IOCON_SetPinMuxing  chip_175x_6x_lib.lib(iocon_17xx_40xx.o)
    0x00000e90   0x00000e90   0x0000008c   Code   RO         4593    i.Chip_SetupXtalClocking  chip_175x_6x_lib.lib(sysinit_17xx_40xx.o)
    0x00000f1c   0x00000f1c   0x00000030   Code   RO         4460    i.Chip_UART_GetClkIndex  chip_175x_6x_lib.lib(uart_17xx_40xx.o)
    0x00000f4c   0x00000f4c   0x00000030   Code   RO         4461    i.Chip_UART_GetClockIndex  chip_175x_6x_lib.lib(uart_17xx_40xx.o)
    0x00000f7c   0x00000f7c   0x00000038   Code   RO         4463    i.Chip_UART_Init    chip_175x_6x_lib.lib(uart_17xx_40xx.o)
    0x00000fb4   0x00000fb4   0x0000003a   Code   RO         4471    i.Chip_UART_SetBaud  chip_175x_6x_lib.lib(uart_17xx_40xx.o)
    0x00000fee   0x00000fee   0x00000006   Code   RO         4474    i.Chip_UART_TXEnable  chip_175x_6x_lib.lib(uart_17xx_40xx.o)
    0x00000ff4   0x00000ff4   0x00000058   Code   RO         3310    i.ETH_IRQHandler    lpc17xx_40xx_emac.o
    0x0000104c   0x0000104c   0x00000024   Code   RO          424    i.SysTick_Handler   port.o
    0x00001070   0x00001070   0x00000010   Code   RO         4170    i.SystemCoreClockUpdate  chip_175x_6x_lib.lib(chip_17xx_40xx.o)
    0x00001080   0x00001080   0x00000014   Code   RO          366    i.SystemInit        sysinit.o
    0x00001094   0x00001094   0x00000004   Code   RO         3705    i._sys_exit         board_nxp_lpcxpresso_1769.lib(board.o)
    0x00001098   0x00001098   0x00000092   Code   RO         2812    i.accept_function   api_msg.o
    0x0000112a   0x0000112a   0x00000002   PAD
    0x0000112c   0x0000112c   0x0000001c   Code   RO         1198    i.arp_timer         timers.o
    0x00001148   0x00001148   0x00000002   Code   RO         3289    i.assert_loop       lpc_debug.o
    0x0000114a   0x0000114a   0x00000020   Code   RO         2106    i.dhcp_arp_reply    dhcp.o
    0x0000116a   0x0000116a   0x000000c6   Code   RO         2107    i.dhcp_bind         dhcp.o
    0x00001230   0x00001230   0x00000030   Code   RO         2108    i.dhcp_check        dhcp.o
    0x00001260   0x00001260   0x00000060   Code   RO         2110    i.dhcp_coarse_tmr   dhcp.o
    0x000012c0   0x000012c0   0x00000148   Code   RO         2111    i.dhcp_create_msg   dhcp.o
    0x00001408   0x00001408   0x00000078   Code   RO         2112    i.dhcp_decline      dhcp.o
    0x00001480   0x00001480   0x00000030   Code   RO         2113    i.dhcp_delete_msg   dhcp.o
    0x000014b0   0x000014b0   0x000000bc   Code   RO         2114    i.dhcp_discover     dhcp.o
    0x0000156c   0x0000156c   0x00000034   Code   RO         2115    i.dhcp_fine_tmr     dhcp.o
    0x000015a0   0x000015a0   0x0000005c   Code   RO         2116    i.dhcp_handle_ack   dhcp.o
    0x000015fc   0x000015fc   0x00000046   Code   RO         2118    i.dhcp_network_changed  dhcp.o
    0x00001642   0x00001642   0x00000034   Code   RO         2119    i.dhcp_option       dhcp.o
    0x00001676   0x00001676   0x00000020   Code   RO         2120    i.dhcp_option_byte  dhcp.o
    0x00001696   0x00001696   0x00000002   PAD
    0x00001698   0x00001698   0x00000050   Code   RO         2121    i.dhcp_option_hostname  dhcp.o
    0x000016e8   0x000016e8   0x00000052   Code   RO         2122    i.dhcp_option_long  dhcp.o
    0x0000173a   0x0000173a   0x00000032   Code   RO         2123    i.dhcp_option_short  dhcp.o
    0x0000176c   0x0000176c   0x0000004a   Code   RO         2124    i.dhcp_option_trailer  dhcp.o
    0x000017b6   0x000017b6   0x00000002   PAD
    0x000017b8   0x000017b8   0x0000020c   Code   RO         2125    i.dhcp_parse_reply  dhcp.o
    0x000019c4   0x000019c4   0x0000008c   Code   RO         2126    i.dhcp_rebind       dhcp.o
    0x00001a50   0x00001a50   0x000000a0   Code   RO         2127    i.dhcp_reboot       dhcp.o
    0x00001af0   0x00001af0   0x0000011c   Code   RO         2128    i.dhcp_recv         dhcp.o
    0x00001c0c   0x00001c0c   0x000000a4   Code   RO         2129    i.dhcp_release      dhcp.o
    0x00001cb0   0x00001cb0   0x0000008a   Code   RO         2130    i.dhcp_renew        dhcp.o
    0x00001d3a   0x00001d3a   0x00000002   PAD
    0x00001d3c   0x00001d3c   0x000000f0   Code   RO         2131    i.dhcp_select       dhcp.o
    0x00001e2c   0x00001e2c   0x00000010   Code   RO         2132    i.dhcp_set_state    dhcp.o
    0x00001e3c   0x00001e3c   0x000000b4   Code   RO         2134    i.dhcp_start        dhcp.o
    0x00001ef0   0x00001ef0   0x0000003e   Code   RO         2135    i.dhcp_stop         dhcp.o
    0x00001f2e   0x00001f2e   0x00000088   Code   RO         2136    i.dhcp_timeout      dhcp.o
    0x00001fb6   0x00001fb6   0x00000002   PAD
    0x00001fb8   0x00001fb8   0x0000001c   Code   RO         1199    i.dhcp_timer_coarse  timers.o
    0x00001fd4   0x00001fd4   0x0000001c   Code   RO         1200    i.dhcp_timer_fine   timers.o
    0x00001ff0   0x00001ff0   0x0000004e   Code   RO         2813    i.do_bind           api_msg.o
    0x0000203e   0x0000203e   0x00000070   Code   RO         2814    i.do_close          api_msg.o
    0x000020ae   0x000020ae   0x00000002   PAD
    0x000020b0   0x000020b0   0x00000124   Code   RO         2815    i.do_close_internal  api_msg.o
    0x000021d4   0x000021d4   0x000000a6   Code   RO         2818    i.do_delconn        api_msg.o
    0x0000227a   0x0000227a   0x00000002   PAD
    0x0000227c   0x0000227c   0x000000a0   Code   RO         2821    i.do_listen         api_msg.o
    0x0000231c   0x0000231c   0x00000020   Code   RO         2822    i.do_newconn        api_msg.o
    0x0000233c   0x0000233c   0x00000042   Code   RO         2823    i.do_recv           api_msg.o
    0x0000237e   0x0000237e   0x00000062   Code   RO         2825    i.do_write          api_msg.o
    0x000023e0   0x000023e0   0x00000144   Code   RO         2826    i.do_writemore      api_msg.o
    0x00002524   0x00002524   0x000000a8   Code   RO         2827    i.err_tcp           api_msg.o
    0x000025cc   0x000025cc   0x000000e2   Code   RO         2583    i.etharp_arp_input  etharp.o
    0x000026ae   0x000026ae   0x00000002   PAD
    0x000026b0   0x000026b0   0x00000030   Code   RO         2584    i.etharp_cleanup_netif  etharp.o
    0x000026e0   0x000026e0   0x0000012c   Code   RO         2586    i.etharp_find_entry  etharp.o
    0x0000280c   0x0000280c   0x00000024   Code   RO         2587    i.etharp_free_entry  etharp.o
    0x00002830   0x00002830   0x00000114   Code   RO         2588    i.etharp_output     etharp.o
    0x00002944   0x00002944   0x0000004c   Code   RO         2589    i.etharp_output_to_arp_index  etharp.o
    0x00002990   0x00002990   0x0000010c   Code   RO         2590    i.etharp_query      etharp.o
    0x00002a9c   0x00002a9c   0x000000be   Code   RO         2591    i.etharp_raw        etharp.o
    0x00002b5a   0x00002b5a   0x00000002   PAD
    0x00002b5c   0x00002b5c   0x00000024   Code   RO         2592    i.etharp_request    etharp.o
    0x00002b80   0x00002b80   0x0000003c   Code   RO         2593    i.etharp_send_ip    etharp.o
    0x00002bbc   0x00002bbc   0x00000048   Code   RO         2594    i.etharp_tmr        etharp.o
    0x00002c04   0x00002c04   0x00000088   Code   RO         2595    i.etharp_update_arp_entry  etharp.o
    0x00002c8c   0x00002c8c   0x00000094   Code   RO         2596    i.ethernet_input    etharp.o
    0x00002d20   0x00002d20   0x00000006   Code   RO         3707    i.ferror            board_nxp_lpcxpresso_1769.lib(board.o)
    0x00002d26   0x00002d26   0x0000000c   Code   RO         3709    i.fputc             board_nxp_lpcxpresso_1769.lib(board.o)
    0x00002d32   0x00002d32   0x00000008   Code   RO         2548    i.icmp_dest_unreach  icmp.o
    0x00002d3a   0x00002d3a   0x00000002   PAD
    0x00002d3c   0x00002d3c   0x00000118   Code   RO         2549    i.icmp_input        icmp.o
    0x00002e54   0x00002e54   0x0000006e   Code   RO         2550    i.icmp_send_response  icmp.o
    0x00002ec2   0x00002ec2   0x00000008   Code   RO         2551    i.icmp_time_exceeded  icmp.o
    0x00002eca   0x00002eca   0x0000000c   Code   RO         2492    i.inet_chksum       inet_chksum.o
    0x00002ed6   0x00002ed6   0x00000048   Code   RO         2493    i.inet_chksum_pbuf  inet_chksum.o
    0x00002f1e   0x00002f1e   0x00000086   Code   RO         2494    i.inet_chksum_pseudo  inet_chksum.o
    0x00002fa4   0x00002fa4   0x000000a4   Code   RO         2495    i.inet_chksum_pseudo_partial  inet_chksum.o
    0x00003048   0x00003048   0x0000002e   Code   RO         2385    i.ip4_addr_isbroadcast  ip_addr.o
    0x00003076   0x00003076   0x00000002   PAD
    0x00003078   0x00003078   0x00000174   Code   RO         2323    i.ip_frag           ip_frag.o
    0x000031ec   0x000031ec   0x00000014   Code   RO         2324    i.ip_frag_free_pbuf_custom_ref  ip_frag.o
    0x00003200   0x00003200   0x0000017c   Code   RO         2439    i.ip_input          ip.o
    0x0000337c   0x0000337c   0x0000003e   Code   RO         2440    i.ip_output         ip.o
    0x000033ba   0x000033ba   0x00000002   PAD
    0x000033bc   0x000033bc   0x000000ec   Code   RO         2441    i.ip_output_if      ip.o
    0x000034a8   0x000034a8   0x00000194   Code   RO         2325    i.ip_reass          ip_frag.o
    0x0000363c   0x0000363c   0x00000124   Code   RO         2326    i.ip_reass_chain_frag_into_datagram_and_validate  ip_frag.o
    0x00003760   0x00003760   0x0000002c   Code   RO         2327    i.ip_reass_dequeue_datagram  ip_frag.o
    0x0000378c   0x0000378c   0x000000a4   Code   RO         2328    i.ip_reass_free_complete_datagram  ip_frag.o
    0x00003830   0x00003830   0x0000006c   Code   RO         2329    i.ip_reass_remove_oldest_datagram  ip_frag.o
    0x0000389c   0x0000389c   0x0000001c   Code   RO         1201    i.ip_reass_timer    timers.o
    0x000038b8   0x000038b8   0x0000002c   Code   RO         2330    i.ip_reass_tmr      ip_frag.o
    0x000038e4   0x000038e4   0x00000040   Code   RO         2442    i.ip_route          ip.o
    0x00003924   0x00003924   0x00000078   Code   RO         2390    i.ipaddr_ntoa_r     ip_addr.o
    0x0000399c   0x0000399c   0x0000001c   Code   RO         2331    i.ipfrag_free_pbuf_custom  ip_frag.o
    0x000039b8   0x000039b8   0x000000b4   Code   RO         3311    i.low_level_init    lpc17xx_40xx_emac.o
    0x00003a6c   0x00003a6c   0x00000070   Code   RO         3508    i.lpcPHYStsPoll     board_nxp_lpcxpresso_1769.lib(lpc_phy_smsc87x0.o)
    0x00003adc   0x00003adc   0x000000fc   Code   RO         3314    i.lpc_enetif_init   lpc17xx_40xx_emac.o
    0x00003bd8   0x00003bd8   0x0000003a   Code   RO         3315    i.lpc_enetif_input  lpc17xx_40xx_emac.o
    0x00003c12   0x00003c12   0x00000012   Code   RO         3316    i.lpc_etharp_output  lpc17xx_40xx_emac.o
    0x00003c24   0x00003c24   0x000000dc   Code   RO         3317    i.lpc_low_level_input  lpc17xx_40xx_emac.o
    0x00003d00   0x00003d00   0x000000f0   Code   RO         3318    i.lpc_low_level_output  lpc17xx_40xx_emac.o
    0x00003df0   0x00003df0   0x0000003c   Code   RO         3509    i.lpc_mii_write     board_nxp_lpcxpresso_1769.lib(lpc_phy_smsc87x0.o)
    0x00003e2c   0x00003e2c   0x0000008c   Code   RO         3510    i.lpc_phy_init      board_nxp_lpcxpresso_1769.lib(lpc_phy_smsc87x0.o)
    0x00003eb8   0x00003eb8   0x00000040   Code   RO         3319    i.lpc_rx_queue      lpc17xx_40xx_emac.o
    0x00003ef8   0x00003ef8   0x0000002a   Code   RO         3320    i.lpc_rx_setup      lpc17xx_40xx_emac.o
    0x00003f22   0x00003f22   0x00000042   Code   RO         3321    i.lpc_rxqueue_pbuf  lpc17xx_40xx_emac.o
    0x00003f64   0x00003f64   0x0000001e   Code   RO         3322    i.lpc_tx_ready      lpc17xx_40xx_emac.o
    0x00003f82   0x00003f82   0x00000002   PAD
    0x00003f84   0x00003f84   0x0000006c   Code   RO         3323    i.lpc_tx_reclaim    lpc17xx_40xx_emac.o
    0x00003ff0   0x00003ff0   0x00000038   Code   RO         3324    i.lpc_tx_setup      lpc17xx_40xx_emac.o
    0x00004028   0x00004028   0x00000016   Code   RO         2496    i.lwip_chksum_copy  inet_chksum.o
    0x0000403e   0x0000403e   0x00000004   Code   RO         2293    i.lwip_htonl        def.o
    0x00004042   0x00004042   0x00000004   Code   RO         2294    i.lwip_htons        def.o
    0x00004046   0x00004046   0x0000001a   Code   RO         2076    i.lwip_init         init.o
    0x00004060   0x00004060   0x00000004   Code   RO         2295    i.lwip_ntohl        def.o
    0x00004064   0x00004064   0x00000004   Code   RO         2296    i.lwip_ntohs        def.o
    0x00004068   0x00004068   0x0000003e   Code   RO         2497    i.lwip_standard_chksum  inet_chksum.o
    0x000040a6   0x000040a6   0x00000002   PAD
    0x000040a8   0x000040a8   0x00000044   Code   RO          244    i.main              lwip_tcpecho_freertos.o
    0x000040ec   0x000040ec   0x0000000e   Code   RO          245    i.msDelay           lwip_tcpecho_freertos.o
    0x000040fa   0x000040fa   0x0000002c   Code   RO         3445    i.netbuf_data       netbuf.o
    0x00004126   0x00004126   0x00000020   Code   RO         3446    i.netbuf_delete     netbuf.o
    0x00004146   0x00004146   0x00000024   Code   RO         3450    i.netbuf_next       netbuf.o
    0x0000416a   0x0000416a   0x00000064   Code   RO         2987    i.netconn_accept    api_lib.o
    0x000041ce   0x000041ce   0x00000002   PAD
    0x000041d0   0x000041d0   0x00000070   Code   RO         2828    i.netconn_alloc     api_msg.o
    0x00004240   0x00004240   0x00000044   Code   RO         2988    i.netconn_bind      api_lib.o
    0x00004284   0x00004284   0x00000006   Code   RO         2989    i.netconn_close     api_lib.o
    0x0000428a   0x0000428a   0x00000002   PAD
    0x0000428c   0x0000428c   0x00000044   Code   RO         2990    i.netconn_close_shutdown  api_lib.o
    0x000042d0   0x000042d0   0x00000024   Code   RO         2992    i.netconn_delete    api_lib.o
    0x000042f4   0x000042f4   0x0000008e   Code   RO         2829    i.netconn_drain     api_msg.o
    0x00004382   0x00004382   0x00000032   Code   RO         2830    i.netconn_free      api_msg.o
    0x000043b4   0x000043b4   0x00000040   Code   RO         2995    i.netconn_listen_with_backlog  api_lib.o
    0x000043f4   0x000043f4   0x00000068   Code   RO         2996    i.netconn_new_with_proto_and_callback  api_lib.o
    0x0000445c   0x0000445c   0x00000094   Code   RO         2997    i.netconn_recv      api_lib.o
    0x000044f0   0x000044f0   0x000000c4   Code   RO         2998    i.netconn_recv_data  api_lib.o
    0x000045b4   0x000045b4   0x00000090   Code   RO         3004    i.netconn_write_partly  api_lib.o
    0x00004644   0x00004644   0x0000005c   Code   RO         1917    i.netif_add         netif.o
    0x000046a0   0x000046a0   0x00000002   Code   RO         1919    i.netif_init        netif.o
    0x000046a2   0x000046a2   0x00000020   Code   RO         1921    i.netif_set_addr    netif.o
    0x000046c2   0x000046c2   0x00000002   PAD
    0x000046c4   0x000046c4   0x0000000c   Code   RO         1922    i.netif_set_default  netif.o
    0x000046d0   0x000046d0   0x0000001a   Code   RO         1923    i.netif_set_down    netif.o
    0x000046ea   0x000046ea   0x00000008   Code   RO         1924    i.netif_set_gw      netif.o
    0x000046f2   0x000046f2   0x00000002   PAD
    0x000046f4   0x000046f4   0x00000068   Code   RO         1925    i.netif_set_ipaddr  netif.o
    0x0000475c   0x0000475c   0x00000012   Code   RO         1926    i.netif_set_link_down  netif.o
    0x0000476e   0x0000476e   0x00000038   Code   RO         1927    i.netif_set_link_up  netif.o
    0x000047a6   0x000047a6   0x00000008   Code   RO         1928    i.netif_set_netmask  netif.o
    0x000047ae   0x000047ae   0x00000020   Code   RO         1929    i.netif_set_up      netif.o
    0x000047ce   0x000047ce   0x00000002   PAD
    0x000047d0   0x000047d0   0x0000018c   Code   RO         1750    i.pbuf_alloc        pbuf.o
    0x0000495c   0x0000495c   0x00000058   Code   RO         1751    i.pbuf_alloced_custom  pbuf.o
    0x000049b4   0x000049b4   0x00000040   Code   RO         1752    i.pbuf_cat          pbuf.o
    0x000049f4   0x000049f4   0x00000012   Code   RO         1753    i.pbuf_chain        pbuf.o
    0x00004a06   0x00004a06   0x00000012   Code   RO         1754    i.pbuf_clen         pbuf.o
    0x00004a18   0x00004a18   0x000000b6   Code   RO         1756    i.pbuf_copy         pbuf.o
    0x00004ace   0x00004ace   0x0000006a   Code   RO         1757    i.pbuf_copy_partial  pbuf.o
    0x00004b38   0x00004b38   0x00000074   Code   RO         1760    i.pbuf_free         pbuf.o
    0x00004bac   0x00004bac   0x00000034   Code   RO         1761    i.pbuf_free_ooseq_callback  pbuf.o
    0x00004be0   0x00004be0   0x0000006e   Code   RO         1763    i.pbuf_header       pbuf.o
    0x00004c4e   0x00004c4e   0x00000002   PAD
    0x00004c50   0x00004c50   0x00000040   Code   RO         1766    i.pbuf_pool_is_empty  pbuf.o
    0x00004c90   0x00004c90   0x00000074   Code   RO         1767    i.pbuf_realloc      pbuf.o
    0x00004d04   0x00004d04   0x0000001a   Code   RO         1768    i.pbuf_ref          pbuf.o
    0x00004d1e   0x00004d1e   0x00000002   PAD
    0x00004d20   0x00004d20   0x00000070   Code   RO         2831    i.pcb_new           api_msg.o
    0x00004d90   0x00004d90   0x00000058   Code   RO         2832    i.poll_tcp          api_msg.o
    0x00004de8   0x00004de8   0x00000034   Code   RO          793    i.prvAddCurrentTaskToDelayedList  tasks.o
    0x00004e1c   0x00004e1c   0x00000054   Code   RO          794    i.prvCheckTasksWaitingTermination  tasks.o
    0x00004e70   0x00004e70   0x00000028   Code   RO          582    i.prvCopyDataFromQueue  queue.o
    0x00004e98   0x00004e98   0x00000068   Code   RO          583    i.prvCopyDataToQueue  queue.o
    0x00004f00   0x00004f00   0x0000001c   Code   RO          795    i.prvIdleTask       tasks.o
    0x00004f1c   0x00004f1c   0x00000006   Code   RO          425    i.prvTaskExitError  port.o
    0x00004f22   0x00004f22   0x00000064   Code   RO          584    i.prvUnlockQueue    queue.o
    0x00004f86   0x00004f86   0x0000001e   Code   RO          506    i.pvPortMalloc      heap_3.o
    0x00004fa4   0x00004fa4   0x00000020   Code   RO          426    i.pxPortInitialiseStack  port.o
    0x00004fc4   0x00004fc4   0x00000080   Code   RO         2833    i.recv_tcp          api_msg.o
    0x00005044   0x00005044   0x00000088   Code   RO         2834    i.recv_udp          api_msg.o
    0x000050cc   0x000050cc   0x00000058   Code   RO         2835    i.sent_tcp          api_msg.o
    0x00005124   0x00005124   0x00000044   Code   RO         2836    i.setup_tcp         api_msg.o
    0x00005168   0x00005168   0x00000064   Code   RO         3511    i.smsc_update_phy_sts  board_nxp_lpcxpresso_1769.lib(lpc_phy_smsc87x0.o)
    0x000051cc   0x000051cc   0x0000005c   Code   RO         3141    i.sys_arch_mbox_fetch  sys_arch_freertos.o
    0x00005228   0x00005228   0x0000001e   Code   RO         3142    i.sys_arch_mbox_tryfetch  sys_arch_freertos.o
    0x00005246   0x00005246   0x0000000a   Code   RO         3143    i.sys_arch_protect  sys_arch_freertos.o
    0x00005250   0x00005250   0x0000004e   Code   RO         3144    i.sys_arch_sem_wait  sys_arch_freertos.o
    0x0000529e   0x0000529e   0x00000004   Code   RO         3145    i.sys_arch_unprotect  sys_arch_freertos.o
    0x000052a2   0x000052a2   0x00000002   Code   RO         3147    i.sys_init          sys_arch_freertos.o
    0x000052a4   0x000052a4   0x00000014   Code   RO         3148    i.sys_mbox_free     sys_arch_freertos.o
    0x000052b8   0x000052b8   0x0000001e   Code   RO         3149    i.sys_mbox_new      sys_arch_freertos.o
    0x000052d6   0x000052d6   0x0000001a   Code   RO         3150    i.sys_mbox_post     sys_arch_freertos.o
    0x000052f0   0x000052f0   0x0000001c   Code   RO         3151    i.sys_mbox_trypost  sys_arch_freertos.o
    0x0000530c   0x0000530c   0x0000001a   Code   RO         3153    i.sys_mutex_lock    sys_arch_freertos.o
    0x00005326   0x00005326   0x00000018   Code   RO         3154    i.sys_mutex_new     sys_arch_freertos.o
    0x0000533e   0x0000533e   0x0000000c   Code   RO         3155    i.sys_mutex_unlock  sys_arch_freertos.o
    0x0000534a   0x0000534a   0x00000006   Code   RO         3157    i.sys_sem_free      sys_arch_freertos.o
    0x00005350   0x00005350   0x00000038   Code   RO         3158    i.sys_sem_new       sys_arch_freertos.o
    0x00005388   0x00005388   0x0000000c   Code   RO         3159    i.sys_sem_signal    sys_arch_freertos.o
    0x00005394   0x00005394   0x00000030   Code   RO         3160    i.sys_thread_new    sys_arch_freertos.o
    0x000053c4   0x000053c4   0x00000068   Code   RO         1202    i.sys_timeout       timers.o
    0x0000542c   0x0000542c   0x00000048   Code   RO         1203    i.sys_timeouts_init  timers.o
    0x00005474   0x00005474   0x00000060   Code   RO         1204    i.sys_timeouts_mbox_fetch  timers.o
    0x000054d4   0x000054d4   0x00000048   Code   RO         1205    i.sys_untimeout     timers.o
    0x0000551c   0x0000551c   0x0000009c   Code   RO         1486    i.tcp_abandon       tcp.o
    0x000055b8   0x000055b8   0x00000006   Code   RO         1487    i.tcp_abort         tcp.o
    0x000055be   0x000055be   0x00000004   Code   RO         1488    i.tcp_accept        tcp.o
    0x000055c2   0x000055c2   0x00000006   Code   RO         1489    i.tcp_accept_null   tcp.o
    0x000055c8   0x000055c8   0x00000100   Code   RO         1490    i.tcp_alloc         tcp.o
    0x000056c8   0x000056c8   0x00000004   Code   RO         1491    i.tcp_arg           tcp.o
    0x000056cc   0x000056cc   0x00000088   Code   RO         1492    i.tcp_bind          tcp.o
    0x00005754   0x00005754   0x00000014   Code   RO         1493    i.tcp_close         tcp.o
    0x00005768   0x00005768   0x00000128   Code   RO         1494    i.tcp_close_shutdown  tcp.o
    0x00005890   0x00005890   0x000000b4   Code   RO         1320    i.tcp_create_segment  tcp_out.o
    0x00005944   0x00005944   0x00000020   Code   RO         1497    i.tcp_eff_send_mss  tcp.o
    0x00005964   0x00005964   0x000000ea   Code   RO         1321    i.tcp_enqueue_flags  tcp_out.o
    0x00005a4e   0x00005a4e   0x00000016   Code   RO         1498    i.tcp_err           tcp.o
    0x00005a64   0x00005a64   0x00000060   Code   RO         1499    i.tcp_fasttmr       tcp.o
    0x00005ac4   0x00005ac4   0x00000002   Code   RO         1500    i.tcp_init          tcp.o
    0x00005ac6   0x00005ac6   0x00000002   PAD
    0x00005ac8   0x00005ac8   0x00000380   Code   RO         1433    i.tcp_input         tcp_in.o
    0x00005e48   0x00005e48   0x00000050   Code   RO         1322    i.tcp_keepalive     tcp_out.o
    0x00005e98   0x00005e98   0x000000e4   Code   RO         1434    i.tcp_listen_input  tcp_in.o
    0x00005f7c   0x00005f7c   0x00000090   Code   RO         1501    i.tcp_listen_with_backlog  tcp.o
    0x0000600c   0x0000600c   0x00000006   Code   RO         1502    i.tcp_new           tcp.o
    0x00006012   0x00006012   0x00000002   PAD
    0x00006014   0x00006014   0x0000005c   Code   RO         1503    i.tcp_new_port      tcp.o
    0x00006070   0x00006070   0x00000010   Code   RO         1504    i.tcp_next_iss      tcp.o
    0x00006080   0x00006080   0x00000078   Code   RO         1435    i.tcp_oos_insert_segment  tcp_in.o
    0x000060f8   0x000060f8   0x000001a0   Code   RO         1323    i.tcp_output        tcp_out.o
    0x00006298   0x00006298   0x00000078   Code   RO         1324    i.tcp_output_alloc_header  tcp_out.o
    0x00006310   0x00006310   0x00000108   Code   RO         1325    i.tcp_output_segment  tcp_out.o
    0x00006418   0x00006418   0x00000080   Code   RO         1436    i.tcp_parseopt      tcp_in.o
    0x00006498   0x00006498   0x0000005c   Code   RO         1326    i.tcp_pbuf_prealloc  tcp_out.o
    0x000064f4   0x000064f4   0x00000042   Code   RO         1505    i.tcp_pcb_purge     tcp.o
    0x00006536   0x00006536   0x00000002   PAD
    0x00006538   0x00006538   0x00000074   Code   RO         1506    i.tcp_pcb_remove    tcp.o
    0x000065ac   0x000065ac   0x0000001c   Code   RO         1507    i.tcp_poll          tcp.o
    0x000065c8   0x000065c8   0x00000354   Code   RO         1437    i.tcp_process       tcp_in.o
    0x0000691c   0x0000691c   0x0000006a   Code   RO         1508    i.tcp_process_refused_data  tcp.o
    0x00006986   0x00006986   0x00000002   PAD
    0x00006988   0x00006988   0x000007cc   Code   RO         1438    i.tcp_receive       tcp_in.o
    0x00007154   0x00007154   0x00000016   Code   RO         1509    i.tcp_recv          tcp.o
    0x0000716a   0x0000716a   0x00000024   Code   RO         1510    i.tcp_recv_null     tcp.o
    0x0000718e   0x0000718e   0x00000054   Code   RO         1511    i.tcp_recved        tcp.o
    0x000071e2   0x000071e2   0x00000052   Code   RO         1327    i.tcp_rexmit        tcp_out.o
    0x00007234   0x00007234   0x00000058   Code   RO         1328    i.tcp_rexmit_fast   tcp_out.o
    0x0000728c   0x0000728c   0x0000002e   Code   RO         1329    i.tcp_rexmit_rto    tcp_out.o
    0x000072ba   0x000072ba   0x00000092   Code   RO         1330    i.tcp_rst           tcp_out.o
    0x0000734c   0x0000734c   0x0000001e   Code   RO         1331    i.tcp_seg_add_chksum  tcp_out.o
    0x0000736a   0x0000736a   0x00000002   PAD
    0x0000736c   0x0000736c   0x0000002c   Code   RO         1512    i.tcp_seg_copy      tcp.o
    0x00007398   0x00007398   0x0000001a   Code   RO         1513    i.tcp_seg_free      tcp.o
    0x000073b2   0x000073b2   0x00000012   Code   RO         1514    i.tcp_segs_free     tcp.o
    0x000073c4   0x000073c4   0x0000005c   Code   RO         1332    i.tcp_send_empty_ack  tcp_out.o
    0x00007420   0x00007420   0x00000044   Code   RO         1333    i.tcp_send_fin      tcp_out.o
    0x00007464   0x00007464   0x00000014   Code   RO         1515    i.tcp_sent          tcp.o
    0x00007478   0x00007478   0x0000004e   Code   RO         1517    i.tcp_shutdown      tcp.o
    0x000074c6   0x000074c6   0x00000002   PAD
    0x000074c8   0x000074c8   0x000002c8   Code   RO         1518    i.tcp_slowtmr       tcp.o
    0x00007790   0x00007790   0x00000034   Code   RO         1206    i.tcp_timer_needed  timers.o
    0x000077c4   0x000077c4   0x0000006c   Code   RO         1439    i.tcp_timewait_input  tcp_in.o
    0x00007830   0x00007830   0x00000020   Code   RO         1519    i.tcp_tmr           tcp.o
    0x00007850   0x00007850   0x00000042   Code   RO         1520    i.tcp_update_rcv_ann_wnd  tcp.o
    0x00007892   0x00007892   0x000003fa   Code   RO         1334    i.tcp_write         tcp_out.o
    0x00007c8c   0x00007c8c   0x00000058   Code   RO         1335    i.tcp_write_checks  tcp_out.o
    0x00007ce4   0x00007ce4   0x000000a0   Code   RO         1336    i.tcp_zero_window_probe  tcp_out.o
    0x00007d84   0x00007d84   0x00000028   Code   RO            3    i.tcpecho_init      tcpecho.o
    0x00007dac   0x00007dac   0x00000072   Code   RO            4    i.tcpecho_thread    tcpecho.o
    0x00007e1e   0x00007e1e   0x00000002   PAD
    0x00007e20   0x00007e20   0x0000003c   Code   RO         2687    i.tcpip_apimsg      tcpip.o
    0x00007e5c   0x00007e5c   0x00000064   Code   RO         2688    i.tcpip_callback_with_block  tcpip.o
    0x00007ec0   0x00007ec0   0x0000004c   Code   RO         2691    i.tcpip_init        tcpip.o
    0x00007f0c   0x00007f0c   0x00000006   Code   RO          246    i.tcpip_init_done_signal  lwip_tcpecho_freertos.o
    0x00007f12   0x00007f12   0x00000002   PAD
    0x00007f14   0x00007f14   0x00000050   Code   RO         2692    i.tcpip_input       tcpip.o
    0x00007f64   0x00007f64   0x00000038   Code   RO         1207    i.tcpip_tcp_timer   timers.o
    0x00007f9c   0x00007f9c   0x00000080   Code   RO         2693    i.tcpip_thread      tcpip.o
    0x0000801c   0x0000801c   0x000000b0   Code   RO         1071    i.udp_bind          udp.o
    0x000080cc   0x000080cc   0x0000004c   Code   RO         1072    i.udp_connect       udp.o
    0x00008118   0x00008118   0x00000002   Code   RO         1074    i.udp_init          udp.o
    0x0000811a   0x0000811a   0x00000002   PAD
    0x0000811c   0x0000811c   0x000001ac   Code   RO         1075    i.udp_input         udp.o
    0x000082c8   0x000082c8   0x00000020   Code   RO         1076    i.udp_new           udp.o
    0x000082e8   0x000082e8   0x00000006   Code   RO         1077    i.udp_recv          udp.o
    0x000082ee   0x000082ee   0x00000002   PAD
    0x000082f0   0x000082f0   0x00000028   Code   RO         1078    i.udp_remove        udp.o
    0x00008318   0x00008318   0x00000012   Code   RO         1083    i.udp_sendto_if     udp.o
    0x0000832a   0x0000832a   0x00000120   Code   RO         1084    i.udp_sendto_if_chksum  udp.o
    0x0000844a   0x0000844a   0x00000024   Code   RO          749    i.uxListRemove      list.o
    0x0000846e   0x0000846e   0x00000012   Code   RO          587    i.uxQueueMessagesWaiting  queue.o
    0x00008480   0x00008480   0x00000004   Code   RO         1027    i.vApplicationIdleHook  freertoscommonhooks.o
    0x00008484   0x00008484   0x00000034   Code   RO         1028    i.vApplicationMallocFailedHook  freertoscommonhooks.o
    0x000084b8   0x000084b8   0x0000003c   Code   RO         1029    i.vApplicationStackOverflowHook  freertoscommonhooks.o
    0x000084f4   0x000084f4   0x00000016   Code   RO          750    i.vListInitialise   list.o
    0x0000850a   0x0000850a   0x00000006   Code   RO          751    i.vListInitialiseItem  list.o
    0x00008510   0x00008510   0x00000030   Code   RO          752    i.vListInsert       list.o
    0x00008540   0x00008540   0x00000018   Code   RO          753    i.vListInsertEnd    list.o
    0x00008558   0x00008558   0x00000026   Code   RO         3325    i.vPacketReceiveTask  lpc17xx_40xx_emac.o
    0x0000857e   0x0000857e   0x00000002   PAD
    0x00008580   0x00008580   0x0000001c   Code   RO          428    i.vPortEnterCritical  port.o
    0x0000859c   0x0000859c   0x00000014   Code   RO          429    i.vPortExitCritical  port.o
    0x000085b0   0x000085b0   0x0000001a   Code   RO          507    i.vPortFree         heap_3.o
    0x000085ca   0x000085ca   0x00000002   PAD
    0x000085cc   0x000085cc   0x00000020   Code   RO          430    i.vPortSetupTimerInterrupt  port.o
    0x000085ec   0x000085ec   0x00000018   Code   RO          431    i.vPortYield        port.o
    0x00008604   0x00008604   0x00000018   Code   RO          591    i.vQueueDelete      queue.o
    0x0000861c   0x0000861c   0x00000024   Code   RO          593    i.vQueueUnregisterQueue  queue.o
    0x00008640   0x00008640   0x000001a4   Code   RO          247    i.vSetupIFTask      lwip_tcpecho_freertos.o
    0x000087e4   0x000087e4   0x00000034   Code   RO          803    i.vTaskDelay        tasks.o
    0x00008818   0x00008818   0x0000000c   Code   RO          807    i.vTaskMissedYield  tasks.o
    0x00008824   0x00008824   0x0000003c   Code   RO          808    i.vTaskPlaceOnEventList  tasks.o
    0x00008860   0x00008860   0x00000048   Code   RO          809    i.vTaskPriorityDisinherit  tasks.o
    0x000088a8   0x000088a8   0x00000064   Code   RO          810    i.vTaskPriorityInherit  tasks.o
    0x0000890c   0x0000890c   0x00000010   Code   RO          814    i.vTaskSetTimeOutState  tasks.o
    0x0000891c   0x0000891c   0x00000044   Code   RO          815    i.vTaskStartScheduler  tasks.o
    0x00008960   0x00008960   0x00000010   Code   RO          817    i.vTaskSuspendAll   tasks.o
    0x00008970   0x00008970   0x00000068   Code   RO          818    i.vTaskSwitchContext  tasks.o
    0x000089d8   0x000089d8   0x0000006c   Code   RO         3326    i.vTransmitCleanupTask  lpc17xx_40xx_emac.o
    0x00008a44   0x00008a44   0x00000030   Code   RO          432    i.xPortStartScheduler  port.o
    0x00008a74   0x00008a74   0x00000014   Code   RO          594    i.xQueueCreateCountingSemaphore  queue.o
    0x00008a88   0x00008a88   0x0000004a   Code   RO          595    i.xQueueCreateMutex  queue.o
    0x00008ad2   0x00008ad2   0x00000048   Code   RO          596    i.xQueueGenericCreate  queue.o
    0x00008b1a   0x00008b1a   0x00000102   Code   RO          597    i.xQueueGenericReceive  queue.o
    0x00008c1c   0x00008c1c   0x00000060   Code   RO          598    i.xQueueGenericReset  queue.o
    0x00008c7c   0x00008c7c   0x000000d6   Code   RO          599    i.xQueueGenericSend  queue.o
    0x00008d52   0x00008d52   0x00000062   Code   RO          600    i.xQueueGenericSendFromISR  queue.o
    0x00008db4   0x00008db4   0x00000048   Code   RO          819    i.xTaskCheckForTimeOut  tasks.o
    0x00008dfc   0x00008dfc   0x00000168   Code   RO          820    i.xTaskGenericCreate  tasks.o
    0x00008f64   0x00008f64   0x0000000c   Code   RO          821    i.xTaskGetCurrentTaskHandle  tasks.o
    0x00008f70   0x00008f70   0x00000018   Code   RO          822    i.xTaskGetTickCount  tasks.o
    0x00008f88   0x00008f88   0x000000c4   Code   RO          824    i.xTaskIncrementTick  tasks.o
    0x0000904c   0x0000904c   0x0000005c   Code   RO          826    i.xTaskRemoveFromEventList  tasks.o
    0x000090a8   0x000090a8   0x0000009c   Code   RO          827    i.xTaskResumeAll    tasks.o
    0x00009144   0x00009144   0x00000054   Data   RO         1521    .constdata          tcp.o
    0x00009198   0x00009198   0x0000001a   Data   RO         2019    .constdata          memp.o
    0x000091b2   0x000091b2   0x00000002   PAD
    0x000091b4   0x000091b4   0x00000004   Data   RO         2392    .constdata          ip_addr.o
    0x000091b8   0x000091b8   0x00000004   Data   RO         2393    .constdata          ip_addr.o
    0x000091bc   0x000091bc   0x0000000c   Data   RO         2598    .constdata          etharp.o
    0x000091c8   0x000091c8   0x00000004   Data   RO         3710    .constdata          board_nxp_lpcxpresso_1769.lib(board.o)
    0x000091cc   0x000091cc   0x00000004   Data   RO         3711    .constdata          board_nxp_lpcxpresso_1769.lib(board.o)
    0x000091d0   0x000091d0   0x0000005c   Data   RO         3919    .constdata          board_nxp_lpcxpresso_1769.lib(board_sysinit.o)
    0x0000922c   0x0000922c   0x0000000f   Data   RO         3970    .constdata          chip_175x_6x_lib.lib(enet_17xx_40xx.o)
    0x0000923b   0x0000923b   0x00000001   PAD
    0x0000923c   0x0000923c   0x00000075   Data   RO         1522    .conststring        tcp.o
    0x000092b1   0x000092b1   0x00000003   PAD
    0x000092b4   0x000092b4   0x00000030   Data   RO         5013    Region$$Table       anon$$obj.o


    Execution Region RW_IRAM1 (Exec base: 0x10000000, Load base: 0x000092e4, Size: 0x00006000, Max: 0x00008000, ABSOLUTE)

    Exec Addr    Load Addr    Size         Type   Attr      Idx    E Section Name        Object

    0x10000000        -       0x00006000   Zero   RW          415    HEAP                keil_startup_lpc17xx_40xx.o


    Execution Region RW_IRAM2 (Exec base: 0x2007c000, Load base: 0x000092e4, Size: 0x00001478, Max: 0x00008000, ABSOLUTE)

    Exec Addr    Load Addr    Size         Type   Attr      Idx    E Section Name        Object

    0x2007c000   0x000092e4   0x00000004   Data   RW          249    .data               lwip_tcpecho_freertos.o
    0x2007c004   0x000092e8   0x00000004   Data   RW          433    .data               port.o
    0x2007c008   0x000092ec   0x00000038   Data   RW          830    .data               tasks.o
    0x2007c040   0x00009324   0x00000008   Data   RW         1085    .data               udp.o
    0x2007c048   0x0000932c   0x00000008   Data   RW         1208    .data               timers.o
    0x2007c050   0x00009334   0x0000001c   Data   RW         1441    .data               tcp_in.o
    0x2007c06c   0x00009350   0x00000024   Data   RW         1523    .data               tcp.o
    0x2007c090   0x00009374   0x00000001   Data   RW         1771    .data               pbuf.o
    0x2007c091   0x00009375   0x00000003   PAD
    0x2007c094   0x00009378   0x0000000c   Data   RW         1930    .data               netif.o
    0x2007c0a0   0x00009384   0x00000004   Data   RW         2138    .data               dhcp.o
    0x2007c0a4   0x00009388   0x00000008   Data   RW         2332    .data               ip_frag.o
    0x2007c0ac   0x00009390   0x00000014   Data   RW         2443    .data               ip.o
    0x2007c0c0   0x000093a4   0x00000001   Data   RW         2599    .data               etharp.o
    0x2007c0c1   0x000093a5   0x00000003   PAD
    0x2007c0c4   0x000093a8   0x0000000c   Data   RW         2697    .data               tcpip.o
    0x2007c0d0   0x000093b4   0x00000014   Data   RW         3512    .data               board_nxp_lpcxpresso_1769.lib(lpc_phy_smsc87x0.o)
    0x2007c0e4   0x000093c8   0x00000004   Data   RW         3713    .data               board_nxp_lpcxpresso_1769.lib(board.o)
    0x2007c0e8   0x000093cc   0x00000004   Data   RW         3971    .data               chip_175x_6x_lib.lib(enet_17xx_40xx.o)
    0x2007c0ec   0x000093d0   0x00000004   Data   RW         4171    .data               chip_175x_6x_lib.lib(chip_17xx_40xx.o)
    0x2007c0f0        -       0x00000048   Zero   RW          248    .bss                lwip_tcpecho_freertos.o
    0x2007c138        -       0x00000050   Zero   RW          607    .bss                queue.o
    0x2007c188        -       0x000000c8   Zero   RW          829    .bss                tasks.o
    0x2007c250        -       0x00000014   Zero   RW         1440    .bss                tcp_in.o
    0x2007c264        -       0x00000032   Zero   RW         2137    .bss                dhcp.o
    0x2007c296   0x000093d4   0x00000002   PAD
    0x2007c298        -       0x000000c8   Zero   RW         2597    .bss                etharp.o
    0x2007c360        -       0x000000b4   Zero   RW         3327    .bss                lpc17xx_40xx_emac.o
    0x2007c414        -       0x00000060   Zero   RW         4886    .bss                c_w.l(libspace.o)
    0x2007c474   0x000093d4   0x00000004   PAD
    0x2007c478        -       0x00001000   Zero   RW          414    STACK               keil_startup_lpc17xx_40xx.o


==============================================================================

Image component sizes


      Code (inc. data)   RO Data    RW Data    ZI Data      Debug   Object Name

       934         40          0          0          0      18698   api_lib.o
      2566         52          0          0          0      27886   api_msg.o
        16          0          0          0          0       2824   def.o
      3686         80          0          4         50      30322   dhcp.o
      1872         60         12          1        200      17867   etharp.o
       116         88          0          0          0       1870   freertoscommonhooks.o
        56          0          0          0          0       1439   heap_3.o
       406          8          0          0          0       3938   icmp.o
       466          0          0          0          0       5902   inet_chksum.o
        26          0          0          0          0        584   init.o
       742         24          0         20          0      14623   ip.o
       166          0          8          0          0       8970   ip_addr.o
      1476         40          0          8          0      11500   ip_frag.o
        68         28        204          0      28672        992   keil_startup_lpc17xx_40xx.o
       136          0          0          0          0       3830   list.o
      1588         90          0          0        180      27123   lpc17xx_40xx_emac.o
         2          0          0          0          0        538   lpc_debug.o
       508        136          0          4         72      60113   lwip_tcpecho_freertos.o
         0          0         26          0          0       2568   memp.o
       112          0          0          0          0       3936   netbuf.o
       390         18          0         12          0      15028   netif.o
      1356         26          0          1          0      22282   pbuf.o
       364         52          0          4          0       8345   port.o
      1154          6          0          0         80      13662   queue.o
       504          0          0          0          0      13079   sys_arch_freertos.o
        20         10          0          0          0        533   sysinit.o
      1576        136          0         56        200      18932   tasks.o
      2748        110        201         36          0      37931   tcp.o
      4328        136          0         28         20      19023   tcp_in.o
      3204         14          0          0          0      23818   tcp_out.o
       154         20          0          0          0      34099   tcpecho.o
       444         64          0         12          0      15001   tcpip.o
       564         94          0          8          0      17748   timers.o
      1066         32          0          8          0      21111   udp.o

    ----------------------------------------------------------------------
     32882       1364        504        208      29476     506115   Object Totals
         0          0         48          0          0          0   (incl. Generated)
        68          0          5          6          2          0   (incl. Padding)

    ----------------------------------------------------------------------

      Code (inc. data)   RO Data    RW Data    ZI Data      Debug   Library Member Name

       260         32          8          4          0      19901   board.o
        62         16         92          0          0       4203   board_sysinit.o
       412         24          0         20          0      20491   lpc_phy_smsc87x0.o
         8          0          0          0          0         68   __main.o
       104          0          0          0          0         84   __printf.o
         0          0          0          0          0          0   __rtentry.o
        12          0          0          0          0          0   __rtentry2.o
         6          0          0          0          0          0   __rtentry4.o
        52          8          0          0          0          0   __scatter.o
        26          0          0          0          0          0   __scatter_copy.o
        28          0          0          0          0          0   __scatter_zi.o
        44          0          0          0          0        108   _printf_char.o
        48          6          0          0          0         96   _printf_char_common.o
        36          4          0          0          0         80   _printf_char_file.o
         6          0          0          0          0          0   _printf_d.o
       120         16          0          0          0         92   _printf_dec.o
       178          0          0          0          0         88   _printf_intcommon.o
         0          0          0          0          0          0   _printf_percent.o
         4          0          0          0          0          0   _printf_percent_end.o
         6          0          0          0          0          0   _printf_s.o
        82          0          0          0          0         80   _printf_str.o
        16          0          0          0          0         68   aeabi_memset.o
        10          0          0          0          0         68   defsig_exit.o
        50          0          0          0          0         88   defsig_general.o
        80         58          0          0          0         76   defsig_rtmem_inner.o
        14          0          0          0          0         80   defsig_rtmem_outer.o
        18          0          0          0          0         80   exit.o
        94          0          0          0          0         80   h1_alloc.o
        52          0          0          0          0         68   h1_extend.o
        78          0          0          0          0         80   h1_free.o
        14          0          0          0          0         84   h1_init.o
         6          0          0          0          0        152   heapauxi.o
         4          0          0          0          0        136   hguard.o
         0          0          0          0          0          0   indicate_semi.o
       138          0          0          0          0        168   init_alloc.o
         2          0          0          0          0          0   libinit.o
        10          0          0          0          0          0   libinit2.o
         2          0          0          0          0          0   libshutdown.o
         2          0          0          0          0          0   libshutdown2.o
         8          4          0          0         96         68   libspace.o
         0          0          0          0          0          0   maybetermalloc1.o
        88          0          0          0          0         76   memcmp.o
        24          4          0          0          0         84   noretval__2printf.o
         8          4          0          0          0         68   rt_heap_descriptor_intlibspace.o
        68          0          0          0          0         68   rt_memclr.o
        78          0          0          0          0         80   rt_memclr_w.o
       138          0          0          0          0         68   rt_memcpy_v6.o
       100          0          0          0          0         80   rt_memcpy_w.o
         2          0          0          0          0          0   rtexit.o
        10          0          0          0          0          0   rtexit2.o
        62          0          0          0          0         76   strlen.o
        74          0          0          0          0         80   sys_stackheap_outer.o
        14          0          0          0          0         76   sys_wrch.o
         2          0          0          0          0         68   use_no_semi.o
        16          4          0          4          0        726   chip_17xx_40xx.o
       428         68          0          0          0      12511   clock_17xx_40xx.o
       418         18         15          4          0      26255   enet_17xx_40xx.o
         0          0          0          0          0       4124   i2s_17xx_40xx.o
       106          0          0          0          0       2325   iocon_17xx_40xx.o
       140          4          0          0          0       4957   sysinit_17xx_40xx.o
       216         32          0          0          0      10904   uart_17xx_40xx.o

    ----------------------------------------------------------------------
      4102        302        116         32        100     109213   Library Totals
        18          0          1          0          4          0   (incl. Padding)

    ----------------------------------------------------------------------

      Code (inc. data)   RO Data    RW Data    ZI Data      Debug   Library Name

       734         72        100         24          0      44595   board_nxp_lpcxpresso_1769.lib
      2026        104          0          0         96       2816   c_w.l
      1324        126         15          8          0      61802   chip_175x_6x_lib.lib

    ----------------------------------------------------------------------
      4102        302        116         32        100     109213   Library Totals

    ----------------------------------------------------------------------

==============================================================================


      Code (inc. data)   RO Data    RW Data    ZI Data      Debug   

     36984       1666        620        240      29576     595564   Grand Totals
     36984       1666        620        240      29576     595564   ELF Image Totals
     36984       1666        620        240          0          0   ROM Totals

==============================================================================

    Total RO  Size (Code + RO Data)                37604 (  36.72kB)
    Total RW  Size (RW Data + ZI Data)             29816 (  29.12kB)
    Total ROM Size (Code + RO Data + RW Data)      37844 (  36.96kB)

==============================================================================

